
Project_T1.elf:     file format elf32-littlearm

Sections:
Idx Name          Size      VMA       LMA       File off  Algn
  0 .isr_vector   0000013c  08000000  08000000  00001000  2**0
                  CONTENTS, ALLOC, LOAD, READONLY, DATA
  1 .text         00001a38  0800013c  0800013c  0000113c  2**2
                  CONTENTS, ALLOC, LOAD, READONLY, CODE
  2 .rodata       0000017c  08001b74  08001b74  00002b74  2**2
                  CONTENTS, ALLOC, LOAD, READONLY, DATA
  3 .init_array   00000004  08001cf0  08001cf0  00002cf0  2**2
                  CONTENTS, ALLOC, LOAD, READONLY, DATA
  4 .fini_array   00000004  08001cf4  08001cf4  00002cf4  2**2
                  CONTENTS, ALLOC, LOAD, READONLY, DATA
  5 .data         00000004  20000008  08001cf8  00003008  2**2
                  CONTENTS, ALLOC, LOAD, DATA
  6 .bss          0000001c  2000000c  08001cfc  0000300c  2**2
                  ALLOC
  7 ._user_heap_stack 00000600  20000028  08001cfc  00003028  2**0
                  ALLOC
  8 .ARM.attributes 00000030  00000000  00000000  0000300c  2**0
                  CONTENTS, READONLY
  9 .debug_info   00006523  00000000  00000000  0000303c  2**0
                  CONTENTS, READONLY, DEBUGGING, OCTETS
 10 .debug_abbrev 00001369  00000000  00000000  0000955f  2**0
                  CONTENTS, READONLY, DEBUGGING, OCTETS
 11 .debug_aranges 000007c0  00000000  00000000  0000a8c8  2**3
                  CONTENTS, READONLY, DEBUGGING, OCTETS
 12 .debug_rnglists 000005bb  00000000  00000000  0000b088  2**0
                  CONTENTS, READONLY, DEBUGGING, OCTETS
 13 .debug_macro  00018bce  00000000  00000000  0000b643  2**0
                  CONTENTS, READONLY, DEBUGGING, OCTETS
 14 .debug_line   0000650d  00000000  00000000  00024211  2**0
                  CONTENTS, READONLY, DEBUGGING, OCTETS
 15 .debug_str    0008b30b  00000000  00000000  0002a71e  2**0
                  CONTENTS, READONLY, DEBUGGING, OCTETS
 16 .comment      00000043  00000000  00000000  000b5a29  2**0
                  CONTENTS, READONLY
 17 .debug_frame  00001e9c  00000000  00000000  000b5a6c  2**2
                  CONTENTS, READONLY, DEBUGGING, OCTETS
 18 .debug_line_str 00000052  00000000  00000000  000b7908  2**0
                  CONTENTS, READONLY, DEBUGGING, OCTETS

Disassembly of section .text:

0800013c <__do_global_dtors_aux>:
 800013c:	b510      	push	{r4, lr}
 800013e:	4c05      	ldr	r4, [pc, #20]	@ (8000154 <__do_global_dtors_aux+0x18>)
 8000140:	7823      	ldrb	r3, [r4, #0]
 8000142:	b933      	cbnz	r3, 8000152 <__do_global_dtors_aux+0x16>
 8000144:	4b04      	ldr	r3, [pc, #16]	@ (8000158 <__do_global_dtors_aux+0x1c>)
 8000146:	b113      	cbz	r3, 800014e <__do_global_dtors_aux+0x12>
 8000148:	4804      	ldr	r0, [pc, #16]	@ (800015c <__do_global_dtors_aux+0x20>)
 800014a:	f3af 8000 	nop.w
 800014e:	2301      	movs	r3, #1
 8000150:	7023      	strb	r3, [r4, #0]
 8000152:	bd10      	pop	{r4, pc}
 8000154:	2000000c 	.word	0x2000000c
 8000158:	00000000 	.word	0x00000000
 800015c:	08001b5c 	.word	0x08001b5c

08000160 <frame_dummy>:
 8000160:	b508      	push	{r3, lr}
 8000162:	4b03      	ldr	r3, [pc, #12]	@ (8000170 <frame_dummy+0x10>)
 8000164:	b11b      	cbz	r3, 800016e <frame_dummy+0xe>
 8000166:	4903      	ldr	r1, [pc, #12]	@ (8000174 <frame_dummy+0x14>)
 8000168:	4803      	ldr	r0, [pc, #12]	@ (8000178 <frame_dummy+0x18>)
 800016a:	f3af 8000 	nop.w
 800016e:	bd08      	pop	{r3, pc}
 8000170:	00000000 	.word	0x00000000
 8000174:	20000010 	.word	0x20000010
 8000178:	08001b5c 	.word	0x08001b5c

0800017c <LL_USART_EnableIT_IDLE>:
  * @rmtoll CR1          IDLEIE        LL_USART_EnableIT_IDLE
  * @param  USARTx USART Instance
  * @retval None
  */
__STATIC_INLINE void LL_USART_EnableIT_IDLE(USART_TypeDef *USARTx)
{
 800017c:	b480      	push	{r7}
 800017e:	b089      	sub	sp, #36	@ 0x24
 8000180:	af00      	add	r7, sp, #0
 8000182:	6078      	str	r0, [r7, #4]
  ATOMIC_SET_BIT(USARTx->CR1, USART_CR1_IDLEIE);
 8000184:	687b      	ldr	r3, [r7, #4]
 8000186:	60fb      	str	r3, [r7, #12]
 */
__STATIC_FORCEINLINE uint32_t __LDREXW(volatile uint32_t *addr)
{
    uint32_t result;

   __ASM volatile ("ldrex %0, %1" : "=r" (result) : "Q" (*addr) );
 8000188:	68fb      	ldr	r3, [r7, #12]
 800018a:	e853 3f00 	ldrex	r3, [r3]
 800018e:	60bb      	str	r3, [r7, #8]
   return(result);
 8000190:	68bb      	ldr	r3, [r7, #8]
 8000192:	f043 0310 	orr.w	r3, r3, #16
 8000196:	61fb      	str	r3, [r7, #28]
 8000198:	687b      	ldr	r3, [r7, #4]
 800019a:	69fa      	ldr	r2, [r7, #28]
 800019c:	61ba      	str	r2, [r7, #24]
 800019e:	617b      	str	r3, [r7, #20]
 */
__STATIC_FORCEINLINE uint32_t __STREXW(uint32_t value, volatile uint32_t *addr)
{
   uint32_t result;

   __ASM volatile ("strex %0, %2, %1" : "=&r" (result), "=Q" (*addr) : "r" (value) );
 80001a0:	6979      	ldr	r1, [r7, #20]
 80001a2:	69ba      	ldr	r2, [r7, #24]
 80001a4:	e841 2300 	strex	r3, r2, [r1]
 80001a8:	613b      	str	r3, [r7, #16]
   return(result);
 80001aa:	693b      	ldr	r3, [r7, #16]
 80001ac:	2b00      	cmp	r3, #0
 80001ae:	d1e9      	bne.n	8000184 <LL_USART_EnableIT_IDLE+0x8>
}
 80001b0:	bf00      	nop
 80001b2:	bf00      	nop
 80001b4:	3724      	adds	r7, #36	@ 0x24
 80001b6:	46bd      	mov	sp, r7
 80001b8:	f85d 7b04 	ldr.w	r7, [sp], #4
 80001bc:	4770      	bx	lr

080001be <LL_USART_EnableIT_RXNE_RXFNE>:
  * @rmtoll CR1        RXNEIE_RXFNEIE  LL_USART_EnableIT_RXNE_RXFNE
  * @param  USARTx USART Instance
  * @retval None
  */
__STATIC_INLINE void LL_USART_EnableIT_RXNE_RXFNE(USART_TypeDef *USARTx)
{
 80001be:	b480      	push	{r7}
 80001c0:	b089      	sub	sp, #36	@ 0x24
 80001c2:	af00      	add	r7, sp, #0
 80001c4:	6078      	str	r0, [r7, #4]
  ATOMIC_SET_BIT(USARTx->CR1, USART_CR1_RXNEIE_RXFNEIE);
 80001c6:	687b      	ldr	r3, [r7, #4]
 80001c8:	60fb      	str	r3, [r7, #12]
   __ASM volatile ("ldrex %0, %1" : "=r" (result) : "Q" (*addr) );
 80001ca:	68fb      	ldr	r3, [r7, #12]
 80001cc:	e853 3f00 	ldrex	r3, [r3]
 80001d0:	60bb      	str	r3, [r7, #8]
   return(result);
 80001d2:	68bb      	ldr	r3, [r7, #8]
 80001d4:	f043 0320 	orr.w	r3, r3, #32
 80001d8:	61fb      	str	r3, [r7, #28]
 80001da:	687b      	ldr	r3, [r7, #4]
 80001dc:	69fa      	ldr	r2, [r7, #28]
 80001de:	61ba      	str	r2, [r7, #24]
 80001e0:	617b      	str	r3, [r7, #20]
   __ASM volatile ("strex %0, %2, %1" : "=&r" (result), "=Q" (*addr) : "r" (value) );
 80001e2:	6979      	ldr	r1, [r7, #20]
 80001e4:	69ba      	ldr	r2, [r7, #24]
 80001e6:	e841 2300 	strex	r3, r2, [r1]
 80001ea:	613b      	str	r3, [r7, #16]
   return(result);
 80001ec:	693b      	ldr	r3, [r7, #16]
 80001ee:	2b00      	cmp	r3, #0
 80001f0:	d1e9      	bne.n	80001c6 <LL_USART_EnableIT_RXNE_RXFNE+0x8>
}
 80001f2:	bf00      	nop
 80001f4:	bf00      	nop
 80001f6:	3724      	adds	r7, #36	@ 0x24
 80001f8:	46bd      	mov	sp, r7
 80001fa:	f85d 7b04 	ldr.w	r7, [sp], #4
 80001fe:	4770      	bx	lr

08000200 <LL_USART_EnableIT_ERROR>:
  * @rmtoll CR3          EIE           LL_USART_EnableIT_ERROR
  * @param  USARTx USART Instance
  * @retval None
  */
__STATIC_INLINE void LL_USART_EnableIT_ERROR(USART_TypeDef *USARTx)
{
 8000200:	b480      	push	{r7}
 8000202:	b089      	sub	sp, #36	@ 0x24
 8000204:	af00      	add	r7, sp, #0
 8000206:	6078      	str	r0, [r7, #4]
  ATOMIC_SET_BIT(USARTx->CR3, USART_CR3_EIE);
 8000208:	687b      	ldr	r3, [r7, #4]
 800020a:	3308      	adds	r3, #8
 800020c:	60fb      	str	r3, [r7, #12]
   __ASM volatile ("ldrex %0, %1" : "=r" (result) : "Q" (*addr) );
 800020e:	68fb      	ldr	r3, [r7, #12]
 8000210:	e853 3f00 	ldrex	r3, [r3]
 8000214:	60bb      	str	r3, [r7, #8]
   return(result);
 8000216:	68bb      	ldr	r3, [r7, #8]
 8000218:	f043 0301 	orr.w	r3, r3, #1
 800021c:	61fb      	str	r3, [r7, #28]
 800021e:	687b      	ldr	r3, [r7, #4]
 8000220:	3308      	adds	r3, #8
 8000222:	69fa      	ldr	r2, [r7, #28]
 8000224:	61ba      	str	r2, [r7, #24]
 8000226:	617b      	str	r3, [r7, #20]
   __ASM volatile ("strex %0, %2, %1" : "=&r" (result), "=Q" (*addr) : "r" (value) );
 8000228:	6979      	ldr	r1, [r7, #20]
 800022a:	69ba      	ldr	r2, [r7, #24]
 800022c:	e841 2300 	strex	r3, r2, [r1]
 8000230:	613b      	str	r3, [r7, #16]
   return(result);
 8000232:	693b      	ldr	r3, [r7, #16]
 8000234:	2b00      	cmp	r3, #0
 8000236:	d1e7      	bne.n	8000208 <LL_USART_EnableIT_ERROR+0x8>
}
 8000238:	bf00      	nop
 800023a:	bf00      	nop
 800023c:	3724      	adds	r7, #36	@ 0x24
 800023e:	46bd      	mov	sp, r7
 8000240:	f85d 7b04 	ldr.w	r7, [sp], #4
 8000244:	4770      	bx	lr

08000246 <LL_USART_ReceiveData8>:
  * @rmtoll RDR          RDR           LL_USART_ReceiveData8
  * @param  USARTx USART Instance
  * @retval Value between Min_Data=0x00 and Max_Data=0xFF
  */
__STATIC_INLINE uint8_t LL_USART_ReceiveData8(const USART_TypeDef *USARTx)
{
 8000246:	b480      	push	{r7}
 8000248:	b083      	sub	sp, #12
 800024a:	af00      	add	r7, sp, #0
 800024c:	6078      	str	r0, [r7, #4]
  return (uint8_t)(READ_BIT(USARTx->RDR, USART_RDR_RDR) & 0xFFU);
 800024e:	687b      	ldr	r3, [r7, #4]
 8000250:	6a5b      	ldr	r3, [r3, #36]	@ 0x24
 8000252:	b2db      	uxtb	r3, r3
}
 8000254:	4618      	mov	r0, r3
 8000256:	370c      	adds	r7, #12
 8000258:	46bd      	mov	sp, r7
 800025a:	f85d 7b04 	ldr.w	r7, [sp], #4
 800025e:	4770      	bx	lr

08000260 <LL_USART_TransmitData8>:
  * @param  USARTx USART Instance
  * @param  Value between Min_Data=0x00 and Max_Data=0xFF
  * @retval None
  */
__STATIC_INLINE void LL_USART_TransmitData8(USART_TypeDef *USARTx, uint8_t Value)
{
 8000260:	b480      	push	{r7}
 8000262:	b083      	sub	sp, #12
 8000264:	af00      	add	r7, sp, #0
 8000266:	6078      	str	r0, [r7, #4]
 8000268:	460b      	mov	r3, r1
 800026a:	70fb      	strb	r3, [r7, #3]
  USARTx->TDR = Value;
 800026c:	78fa      	ldrb	r2, [r7, #3]
 800026e:	687b      	ldr	r3, [r7, #4]
 8000270:	629a      	str	r2, [r3, #40]	@ 0x28
}
 8000272:	bf00      	nop
 8000274:	370c      	adds	r7, #12
 8000276:	46bd      	mov	sp, r7
 8000278:	f85d 7b04 	ldr.w	r7, [sp], #4
 800027c:	4770      	bx	lr
	...

08000280 <SerialItEnable>:
// *****************************************************************************
// @brief This function enables the required interupts
//
// *****************************************************************************
void SerialItEnable( void )
{
 8000280:	b580      	push	{r7, lr}
 8000282:	af00      	add	r7, sp, #0
    LL_USART_EnableIT_IDLE( USART1 );
 8000284:	4805      	ldr	r0, [pc, #20]	@ (800029c <SerialItEnable+0x1c>)
 8000286:	f7ff ff79 	bl	800017c <LL_USART_EnableIT_IDLE>
    LL_USART_EnableIT_ERROR( USART1 );
 800028a:	4804      	ldr	r0, [pc, #16]	@ (800029c <SerialItEnable+0x1c>)
 800028c:	f7ff ffb8 	bl	8000200 <LL_USART_EnableIT_ERROR>
    LL_USART_EnableIT_RXNE( USART1 );
 8000290:	4802      	ldr	r0, [pc, #8]	@ (800029c <SerialItEnable+0x1c>)
 8000292:	f7ff ff94 	bl	80001be <LL_USART_EnableIT_RXNE_RXFNE>
}
 8000296:	bf00      	nop
 8000298:	bd80      	pop	{r7, pc}
 800029a:	bf00      	nop
 800029c:	40013800 	.word	0x40013800

080002a0 <SerialItIrq>:
// *****************************************************************************
// @brief
//
// *****************************************************************************
void SerialItIrq( void )
{
 80002a0:	b580      	push	{r7, lr}
 80002a2:	b082      	sub	sp, #8
 80002a4:	af00      	add	r7, sp, #0
    HalSerialRxEvent_e event = 0;
 80002a6:	2300      	movs	r3, #0
 80002a8:	71fb      	strb	r3, [r7, #7]

    // Notification flags
    if ( USART1->ISR & USART_ISR_RXNE_RXFNE )
 80002aa:	4b28      	ldr	r3, [pc, #160]	@ (800034c <SerialItIrq+0xac>)
 80002ac:	69db      	ldr	r3, [r3, #28]
 80002ae:	f003 0320 	and.w	r3, r3, #32
 80002b2:	2b00      	cmp	r3, #0
 80002b4:	d005      	beq.n	80002c2 <SerialItIrq+0x22>
    {
        event |= HalSerialRxEventData;
 80002b6:	79fb      	ldrb	r3, [r7, #7]
 80002b8:	f043 0301 	orr.w	r3, r3, #1
 80002bc:	71fb      	strb	r3, [r7, #7]
        SerialItRxRcvdCb();
 80002be:	f000 f847 	bl	8000350 <SerialItRxRcvdCb>
    }
    if ( USART1->ISR & USART_ISR_IDLE )
 80002c2:	4b22      	ldr	r3, [pc, #136]	@ (800034c <SerialItIrq+0xac>)
 80002c4:	69db      	ldr	r3, [r3, #28]
 80002c6:	f003 0310 	and.w	r3, r3, #16
 80002ca:	2b00      	cmp	r3, #0
 80002cc:	d006      	beq.n	80002dc <SerialItIrq+0x3c>
    {
        USART1->ICR = USART_ICR_IDLECF;
 80002ce:	4b1f      	ldr	r3, [pc, #124]	@ (800034c <SerialItIrq+0xac>)
 80002d0:	2210      	movs	r2, #16
 80002d2:	621a      	str	r2, [r3, #32]
        event |= HalSerialRxEventIdle;
 80002d4:	79fb      	ldrb	r3, [r7, #7]
 80002d6:	f043 0302 	orr.w	r3, r3, #2
 80002da:	71fb      	strb	r3, [r7, #7]
    }
    // Error flags
    if ( USART1->ISR & USART_ISR_ORE )
 80002dc:	4b1b      	ldr	r3, [pc, #108]	@ (800034c <SerialItIrq+0xac>)
 80002de:	69db      	ldr	r3, [r3, #28]
 80002e0:	f003 0308 	and.w	r3, r3, #8
 80002e4:	2b00      	cmp	r3, #0
 80002e6:	d006      	beq.n	80002f6 <SerialItIrq+0x56>
    {
        USART1->ICR = USART_ICR_ORECF;
 80002e8:	4b18      	ldr	r3, [pc, #96]	@ (800034c <SerialItIrq+0xac>)
 80002ea:	2208      	movs	r2, #8
 80002ec:	621a      	str	r2, [r3, #32]
        event |= HalSerialRxEventOverrunError;
 80002ee:	79fb      	ldrb	r3, [r7, #7]
 80002f0:	f043 0310 	orr.w	r3, r3, #16
 80002f4:	71fb      	strb	r3, [r7, #7]
    }
    if ( USART1->ISR & USART_ISR_NE )
 80002f6:	4b15      	ldr	r3, [pc, #84]	@ (800034c <SerialItIrq+0xac>)
 80002f8:	69db      	ldr	r3, [r3, #28]
 80002fa:	f003 0304 	and.w	r3, r3, #4
 80002fe:	2b00      	cmp	r3, #0
 8000300:	d006      	beq.n	8000310 <SerialItIrq+0x70>
    {
        USART1->ICR = USART_ICR_NECF;
 8000302:	4b12      	ldr	r3, [pc, #72]	@ (800034c <SerialItIrq+0xac>)
 8000304:	2204      	movs	r2, #4
 8000306:	621a      	str	r2, [r3, #32]
        event |= HalSerialRxEventNoiseError;
 8000308:	79fb      	ldrb	r3, [r7, #7]
 800030a:	f043 0308 	orr.w	r3, r3, #8
 800030e:	71fb      	strb	r3, [r7, #7]
    }
    if ( USART1->ISR & USART_ISR_FE )
 8000310:	4b0e      	ldr	r3, [pc, #56]	@ (800034c <SerialItIrq+0xac>)
 8000312:	69db      	ldr	r3, [r3, #28]
 8000314:	f003 0302 	and.w	r3, r3, #2
 8000318:	2b00      	cmp	r3, #0
 800031a:	d006      	beq.n	800032a <SerialItIrq+0x8a>
    {
        USART1->ICR = USART_ICR_FECF;
 800031c:	4b0b      	ldr	r3, [pc, #44]	@ (800034c <SerialItIrq+0xac>)
 800031e:	2202      	movs	r2, #2
 8000320:	621a      	str	r2, [r3, #32]
        event |= HalSerialRxEventFrameError;
 8000322:	79fb      	ldrb	r3, [r7, #7]
 8000324:	f043 0304 	orr.w	r3, r3, #4
 8000328:	71fb      	strb	r3, [r7, #7]
    }
    if ( USART1->ISR & USART_ISR_PE )
 800032a:	4b08      	ldr	r3, [pc, #32]	@ (800034c <SerialItIrq+0xac>)
 800032c:	69db      	ldr	r3, [r3, #28]
 800032e:	f003 0301 	and.w	r3, r3, #1
 8000332:	2b00      	cmp	r3, #0
 8000334:	d006      	beq.n	8000344 <SerialItIrq+0xa4>
    {
        USART1->ICR = USART_ICR_PECF;
 8000336:	4b05      	ldr	r3, [pc, #20]	@ (800034c <SerialItIrq+0xac>)
 8000338:	2201      	movs	r2, #1
 800033a:	621a      	str	r2, [r3, #32]
        event |= HalSerialRxEventParityError;
 800033c:	79fb      	ldrb	r3, [r7, #7]
 800033e:	f043 0320 	orr.w	r3, r3, #32
 8000342:	71fb      	strb	r3, [r7, #7]
    }

}
 8000344:	bf00      	nop
 8000346:	3708      	adds	r7, #8
 8000348:	46bd      	mov	sp, r7
 800034a:	bd80      	pop	{r7, pc}
 800034c:	40013800 	.word	0x40013800

08000350 <SerialItRxRcvdCb>:
// *****************************************************************************
// @brief Data Receive Callback Function.
//
// *****************************************************************************
void SerialItRxRcvdCb( void )
{
 8000350:	b580      	push	{r7, lr}
 8000352:	b082      	sub	sp, #8
 8000354:	af00      	add	r7, sp, #0
    uint8_t data = LL_USART_ReceiveData8( USART1 );
 8000356:	4808      	ldr	r0, [pc, #32]	@ (8000378 <SerialItRxRcvdCb+0x28>)
 8000358:	f7ff ff75 	bl	8000246 <LL_USART_ReceiveData8>
 800035c:	4603      	mov	r3, r0
 800035e:	71fb      	strb	r3, [r7, #7]

    if ( 'A' == data )
 8000360:	79fb      	ldrb	r3, [r7, #7]
 8000362:	2b41      	cmp	r3, #65	@ 0x41
 8000364:	d104      	bne.n	8000370 <SerialItRxRcvdCb+0x20>
    {
        LL_USART_TransmitData8( USART1, data );
 8000366:	79fb      	ldrb	r3, [r7, #7]
 8000368:	4619      	mov	r1, r3
 800036a:	4803      	ldr	r0, [pc, #12]	@ (8000378 <SerialItRxRcvdCb+0x28>)
 800036c:	f7ff ff78 	bl	8000260 <LL_USART_TransmitData8>
    }

}
 8000370:	bf00      	nop
 8000372:	3708      	adds	r7, #8
 8000374:	46bd      	mov	sp, r7
 8000376:	bd80      	pop	{r7, pc}
 8000378:	40013800 	.word	0x40013800

0800037c <LL_AHB2_GRP1_EnableClock>:
  *         @arg @ref LL_AHB2_GRP1_PERIPH_AES1 (*)
  * @note  (*) Not supported by all the devices
  * @retval None
  */
__STATIC_INLINE void LL_AHB2_GRP1_EnableClock(uint32_t Periphs)
{
 800037c:	b480      	push	{r7}
 800037e:	b085      	sub	sp, #20
 8000380:	af00      	add	r7, sp, #0
 8000382:	6078      	str	r0, [r7, #4]
  __IO uint32_t tmpreg;
  SET_BIT(RCC->AHB2ENR, Periphs);
 8000384:	f04f 43b0 	mov.w	r3, #1476395008	@ 0x58000000
 8000388:	6cda      	ldr	r2, [r3, #76]	@ 0x4c
 800038a:	f04f 41b0 	mov.w	r1, #1476395008	@ 0x58000000
 800038e:	687b      	ldr	r3, [r7, #4]
 8000390:	4313      	orrs	r3, r2
 8000392:	64cb      	str	r3, [r1, #76]	@ 0x4c
  /* Delay after an RCC peripheral clock enabling */
  tmpreg = READ_BIT(RCC->AHB2ENR, Periphs);
 8000394:	f04f 43b0 	mov.w	r3, #1476395008	@ 0x58000000
 8000398:	6cda      	ldr	r2, [r3, #76]	@ 0x4c
 800039a:	687b      	ldr	r3, [r7, #4]
 800039c:	4013      	ands	r3, r2
 800039e:	60fb      	str	r3, [r7, #12]
  (void)tmpreg;
 80003a0:	68fb      	ldr	r3, [r7, #12]
}
 80003a2:	bf00      	nop
 80003a4:	3714      	adds	r7, #20
 80003a6:	46bd      	mov	sp, r7
 80003a8:	f85d 7b04 	ldr.w	r7, [sp], #4
 80003ac:	4770      	bx	lr

080003ae <MX_GPIO_Init>:
        * Output
        * EVENT_OUT
        * EXTI
*/
void MX_GPIO_Init(void)
{
 80003ae:	b580      	push	{r7, lr}
 80003b0:	af00      	add	r7, sp, #0

  /* GPIO Ports Clock Enable */
  LL_AHB2_GRP1_EnableClock(LL_AHB2_GRP1_PERIPH_GPIOC);
 80003b2:	2004      	movs	r0, #4
 80003b4:	f7ff ffe2 	bl	800037c <LL_AHB2_GRP1_EnableClock>
  LL_AHB2_GRP1_EnableClock(LL_AHB2_GRP1_PERIPH_GPIOA);
 80003b8:	2001      	movs	r0, #1
 80003ba:	f7ff ffdf 	bl	800037c <LL_AHB2_GRP1_EnableClock>
  LL_AHB2_GRP1_EnableClock(LL_AHB2_GRP1_PERIPH_GPIOB);
 80003be:	2002      	movs	r0, #2
 80003c0:	f7ff ffdc 	bl	800037c <LL_AHB2_GRP1_EnableClock>

}
 80003c4:	bf00      	nop
 80003c6:	bd80      	pop	{r7, pc}

080003c8 <__NVIC_SetPriorityGrouping>:
           In case of a conflict between priority grouping and available
           priority bits (__NVIC_PRIO_BITS), the smallest possible priority group is set.
  \param [in]      PriorityGroup  Priority grouping field.
 */
__STATIC_INLINE void __NVIC_SetPriorityGrouping(uint32_t PriorityGroup)
{
 80003c8:	b480      	push	{r7}
 80003ca:	b085      	sub	sp, #20
 80003cc:	af00      	add	r7, sp, #0
 80003ce:	6078      	str	r0, [r7, #4]
  uint32_t reg_value;
  uint32_t PriorityGroupTmp = (PriorityGroup & (uint32_t)0x07UL);             /* only values 0..7 are used          */
 80003d0:	687b      	ldr	r3, [r7, #4]
 80003d2:	f003 0307 	and.w	r3, r3, #7
 80003d6:	60fb      	str	r3, [r7, #12]

  reg_value  =  SCB->AIRCR;                                                   /* read old register configuration    */
 80003d8:	4b0c      	ldr	r3, [pc, #48]	@ (800040c <__NVIC_SetPriorityGrouping+0x44>)
 80003da:	68db      	ldr	r3, [r3, #12]
 80003dc:	60bb      	str	r3, [r7, #8]
  reg_value &= ~((uint32_t)(SCB_AIRCR_VECTKEY_Msk | SCB_AIRCR_PRIGROUP_Msk)); /* clear bits to change               */
 80003de:	68ba      	ldr	r2, [r7, #8]
 80003e0:	f64f 03ff 	movw	r3, #63743	@ 0xf8ff
 80003e4:	4013      	ands	r3, r2
 80003e6:	60bb      	str	r3, [r7, #8]
  reg_value  =  (reg_value                                   |
                ((uint32_t)0x5FAUL << SCB_AIRCR_VECTKEY_Pos) |
                (PriorityGroupTmp << SCB_AIRCR_PRIGROUP_Pos)  );              /* Insert write key and priority group */
 80003e8:	68fb      	ldr	r3, [r7, #12]
 80003ea:	021a      	lsls	r2, r3, #8
                ((uint32_t)0x5FAUL << SCB_AIRCR_VECTKEY_Pos) |
 80003ec:	68bb      	ldr	r3, [r7, #8]
 80003ee:	4313      	orrs	r3, r2
  reg_value  =  (reg_value                                   |
 80003f0:	f043 63bf 	orr.w	r3, r3, #100139008	@ 0x5f80000
 80003f4:	f443 3300 	orr.w	r3, r3, #131072	@ 0x20000
 80003f8:	60bb      	str	r3, [r7, #8]
  SCB->AIRCR =  reg_value;
 80003fa:	4a04      	ldr	r2, [pc, #16]	@ (800040c <__NVIC_SetPriorityGrouping+0x44>)
 80003fc:	68bb      	ldr	r3, [r7, #8]
 80003fe:	60d3      	str	r3, [r2, #12]
}
 8000400:	bf00      	nop
 8000402:	3714      	adds	r7, #20
 8000404:	46bd      	mov	sp, r7
 8000406:	f85d 7b04 	ldr.w	r7, [sp], #4
 800040a:	4770      	bx	lr
 800040c:	e000ed00 	.word	0xe000ed00

08000410 <__NVIC_GetPriorityGrouping>:
  \brief   Get Priority Grouping
  \details Reads the priority grouping field from the NVIC Interrupt Controller.
  \return                Priority grouping field (SCB->AIRCR [10:8] PRIGROUP field).
 */
__STATIC_INLINE uint32_t __NVIC_GetPriorityGrouping(void)
{
 8000410:	b480      	push	{r7}
 8000412:	af00      	add	r7, sp, #0
  return ((uint32_t)((SCB->AIRCR & SCB_AIRCR_PRIGROUP_Msk) >> SCB_AIRCR_PRIGROUP_Pos));
 8000414:	4b04      	ldr	r3, [pc, #16]	@ (8000428 <__NVIC_GetPriorityGrouping+0x18>)
 8000416:	68db      	ldr	r3, [r3, #12]
 8000418:	0a1b      	lsrs	r3, r3, #8
 800041a:	f003 0307 	and.w	r3, r3, #7
}
 800041e:	4618      	mov	r0, r3
 8000420:	46bd      	mov	sp, r7
 8000422:	f85d 7b04 	ldr.w	r7, [sp], #4
 8000426:	4770      	bx	lr
 8000428:	e000ed00 	.word	0xe000ed00

0800042c <__NVIC_SetPriority>:
  \param [in]      IRQn  Interrupt number.
  \param [in]  priority  Priority to set.
  \note    The priority cannot be set for every processor exception.
 */
__STATIC_INLINE void __NVIC_SetPriority(IRQn_Type IRQn, uint32_t priority)
{
 800042c:	b480      	push	{r7}
 800042e:	b083      	sub	sp, #12
 8000430:	af00      	add	r7, sp, #0
 8000432:	4603      	mov	r3, r0
 8000434:	6039      	str	r1, [r7, #0]
 8000436:	71fb      	strb	r3, [r7, #7]
  if ((int32_t)(IRQn) >= 0)
 8000438:	f997 3007 	ldrsb.w	r3, [r7, #7]
 800043c:	2b00      	cmp	r3, #0
 800043e:	db0a      	blt.n	8000456 <__NVIC_SetPriority+0x2a>
  {
    NVIC->IP[((uint32_t)IRQn)]               = (uint8_t)((priority << (8U - __NVIC_PRIO_BITS)) & (uint32_t)0xFFUL);
 8000440:	683b      	ldr	r3, [r7, #0]
 8000442:	b2da      	uxtb	r2, r3
 8000444:	490c      	ldr	r1, [pc, #48]	@ (8000478 <__NVIC_SetPriority+0x4c>)
 8000446:	f997 3007 	ldrsb.w	r3, [r7, #7]
 800044a:	0112      	lsls	r2, r2, #4
 800044c:	b2d2      	uxtb	r2, r2
 800044e:	440b      	add	r3, r1
 8000450:	f883 2300 	strb.w	r2, [r3, #768]	@ 0x300
  }
  else
  {
    SCB->SHP[(((uint32_t)IRQn) & 0xFUL)-4UL] = (uint8_t)((priority << (8U - __NVIC_PRIO_BITS)) & (uint32_t)0xFFUL);
  }
}
 8000454:	e00a      	b.n	800046c <__NVIC_SetPriority+0x40>
    SCB->SHP[(((uint32_t)IRQn) & 0xFUL)-4UL] = (uint8_t)((priority << (8U - __NVIC_PRIO_BITS)) & (uint32_t)0xFFUL);
 8000456:	683b      	ldr	r3, [r7, #0]
 8000458:	b2da      	uxtb	r2, r3
 800045a:	4908      	ldr	r1, [pc, #32]	@ (800047c <__NVIC_SetPriority+0x50>)
 800045c:	79fb      	ldrb	r3, [r7, #7]
 800045e:	f003 030f 	and.w	r3, r3, #15
 8000462:	3b04      	subs	r3, #4
 8000464:	0112      	lsls	r2, r2, #4
 8000466:	b2d2      	uxtb	r2, r2
 8000468:	440b      	add	r3, r1
 800046a:	761a      	strb	r2, [r3, #24]
}
 800046c:	bf00      	nop
 800046e:	370c      	adds	r7, #12
 8000470:	46bd      	mov	sp, r7
 8000472:	f85d 7b04 	ldr.w	r7, [sp], #4
 8000476:	4770      	bx	lr
 8000478:	e000e100 	.word	0xe000e100
 800047c:	e000ed00 	.word	0xe000ed00

08000480 <NVIC_EncodePriority>:
  \param [in]   PreemptPriority  Preemptive priority value (starting from 0).
  \param [in]       SubPriority  Subpriority value (starting from 0).
  \return                        Encoded priority. Value can be used in the function \ref NVIC_SetPriority().
 */
__STATIC_INLINE uint32_t NVIC_EncodePriority (uint32_t PriorityGroup, uint32_t PreemptPriority, uint32_t SubPriority)
{
 8000480:	b480      	push	{r7}
 8000482:	b089      	sub	sp, #36	@ 0x24
 8000484:	af00      	add	r7, sp, #0
 8000486:	60f8      	str	r0, [r7, #12]
 8000488:	60b9      	str	r1, [r7, #8]
 800048a:	607a      	str	r2, [r7, #4]
  uint32_t PriorityGroupTmp = (PriorityGroup & (uint32_t)0x07UL);   /* only values 0..7 are used          */
 800048c:	68fb      	ldr	r3, [r7, #12]
 800048e:	f003 0307 	and.w	r3, r3, #7
 8000492:	61fb      	str	r3, [r7, #28]
  uint32_t PreemptPriorityBits;
  uint32_t SubPriorityBits;

  PreemptPriorityBits = ((7UL - PriorityGroupTmp) > (uint32_t)(__NVIC_PRIO_BITS)) ? (uint32_t)(__NVIC_PRIO_BITS) : (uint32_t)(7UL - PriorityGroupTmp);
 8000494:	69fb      	ldr	r3, [r7, #28]
 8000496:	f1c3 0307 	rsb	r3, r3, #7
 800049a:	2b04      	cmp	r3, #4
 800049c:	bf28      	it	cs
 800049e:	2304      	movcs	r3, #4
 80004a0:	61bb      	str	r3, [r7, #24]
  SubPriorityBits     = ((PriorityGroupTmp + (uint32_t)(__NVIC_PRIO_BITS)) < (uint32_t)7UL) ? (uint32_t)0UL : (uint32_t)((PriorityGroupTmp - 7UL) + (uint32_t)(__NVIC_PRIO_BITS));
 80004a2:	69fb      	ldr	r3, [r7, #28]
 80004a4:	3304      	adds	r3, #4
 80004a6:	2b06      	cmp	r3, #6
 80004a8:	d902      	bls.n	80004b0 <NVIC_EncodePriority+0x30>
 80004aa:	69fb      	ldr	r3, [r7, #28]
 80004ac:	3b03      	subs	r3, #3
 80004ae:	e000      	b.n	80004b2 <NVIC_EncodePriority+0x32>
 80004b0:	2300      	movs	r3, #0
 80004b2:	617b      	str	r3, [r7, #20]

  return (
           ((PreemptPriority & (uint32_t)((1UL << (PreemptPriorityBits)) - 1UL)) << SubPriorityBits) |
 80004b4:	f04f 32ff 	mov.w	r2, #4294967295
 80004b8:	69bb      	ldr	r3, [r7, #24]
 80004ba:	fa02 f303 	lsl.w	r3, r2, r3
 80004be:	43da      	mvns	r2, r3
 80004c0:	68bb      	ldr	r3, [r7, #8]
 80004c2:	401a      	ands	r2, r3
 80004c4:	697b      	ldr	r3, [r7, #20]
 80004c6:	409a      	lsls	r2, r3
           ((SubPriority     & (uint32_t)((1UL << (SubPriorityBits    )) - 1UL)))
 80004c8:	f04f 31ff 	mov.w	r1, #4294967295
 80004cc:	697b      	ldr	r3, [r7, #20]
 80004ce:	fa01 f303 	lsl.w	r3, r1, r3
 80004d2:	43d9      	mvns	r1, r3
 80004d4:	687b      	ldr	r3, [r7, #4]
 80004d6:	400b      	ands	r3, r1
           ((PreemptPriority & (uint32_t)((1UL << (PreemptPriorityBits)) - 1UL)) << SubPriorityBits) |
 80004d8:	4313      	orrs	r3, r2
         );
}
 80004da:	4618      	mov	r0, r3
 80004dc:	3724      	adds	r7, #36	@ 0x24
 80004de:	46bd      	mov	sp, r7
 80004e0:	f85d 7b04 	ldr.w	r7, [sp], #4
 80004e4:	4770      	bx	lr

080004e6 <LL_RCC_HSE_Enable>:
  * @brief  Enable HSE crystal oscillator (HSE ON)
  * @rmtoll CR           HSEON         LL_RCC_HSE_Enable
  * @retval None
  */
__STATIC_INLINE void LL_RCC_HSE_Enable(void)
{
 80004e6:	b480      	push	{r7}
 80004e8:	af00      	add	r7, sp, #0
  SET_BIT(RCC->CR, RCC_CR_HSEON);
 80004ea:	f04f 43b0 	mov.w	r3, #1476395008	@ 0x58000000
 80004ee:	681b      	ldr	r3, [r3, #0]
 80004f0:	f04f 42b0 	mov.w	r2, #1476395008	@ 0x58000000
 80004f4:	f443 3380 	orr.w	r3, r3, #65536	@ 0x10000
 80004f8:	6013      	str	r3, [r2, #0]
}
 80004fa:	bf00      	nop
 80004fc:	46bd      	mov	sp, r7
 80004fe:	f85d 7b04 	ldr.w	r7, [sp], #4
 8000502:	4770      	bx	lr

08000504 <LL_RCC_HSE_IsReady>:
  * @brief  Check if HSE oscillator Ready
  * @rmtoll CR           HSERDY        LL_RCC_HSE_IsReady
  * @retval State of bit (1 or 0).
  */
__STATIC_INLINE uint32_t LL_RCC_HSE_IsReady(void)
{
 8000504:	b480      	push	{r7}
 8000506:	af00      	add	r7, sp, #0
  return ((READ_BIT(RCC->CR, RCC_CR_HSERDY) == (RCC_CR_HSERDY)) ? 1UL : 0UL);
 8000508:	f04f 43b0 	mov.w	r3, #1476395008	@ 0x58000000
 800050c:	681b      	ldr	r3, [r3, #0]
 800050e:	f403 3300 	and.w	r3, r3, #131072	@ 0x20000
 8000512:	f5b3 3f00 	cmp.w	r3, #131072	@ 0x20000
 8000516:	d101      	bne.n	800051c <LL_RCC_HSE_IsReady+0x18>
 8000518:	2301      	movs	r3, #1
 800051a:	e000      	b.n	800051e <LL_RCC_HSE_IsReady+0x1a>
 800051c:	2300      	movs	r3, #0
}
 800051e:	4618      	mov	r0, r3
 8000520:	46bd      	mov	sp, r7
 8000522:	f85d 7b04 	ldr.w	r7, [sp], #4
 8000526:	4770      	bx	lr

08000528 <LL_RCC_HSI_Enable>:
  * @brief  Enable HSI oscillator
  * @rmtoll CR           HSION         LL_RCC_HSI_Enable
  * @retval None
  */
__STATIC_INLINE void LL_RCC_HSI_Enable(void)
{
 8000528:	b480      	push	{r7}
 800052a:	af00      	add	r7, sp, #0
  SET_BIT(RCC->CR, RCC_CR_HSION);
 800052c:	f04f 43b0 	mov.w	r3, #1476395008	@ 0x58000000
 8000530:	681b      	ldr	r3, [r3, #0]
 8000532:	f04f 42b0 	mov.w	r2, #1476395008	@ 0x58000000
 8000536:	f443 7380 	orr.w	r3, r3, #256	@ 0x100
 800053a:	6013      	str	r3, [r2, #0]
}
 800053c:	bf00      	nop
 800053e:	46bd      	mov	sp, r7
 8000540:	f85d 7b04 	ldr.w	r7, [sp], #4
 8000544:	4770      	bx	lr

08000546 <LL_RCC_HSI_IsReady>:
  * @brief  Check if HSI clock is ready
  * @rmtoll CR           HSIRDY        LL_RCC_HSI_IsReady
  * @retval State of bit (1 or 0).
  */
__STATIC_INLINE uint32_t LL_RCC_HSI_IsReady(void)
{
 8000546:	b480      	push	{r7}
 8000548:	af00      	add	r7, sp, #0
  return ((READ_BIT(RCC->CR, RCC_CR_HSIRDY) == (RCC_CR_HSIRDY)) ? 1UL : 0UL);
 800054a:	f04f 43b0 	mov.w	r3, #1476395008	@ 0x58000000
 800054e:	681b      	ldr	r3, [r3, #0]
 8000550:	f403 6380 	and.w	r3, r3, #1024	@ 0x400
 8000554:	f5b3 6f80 	cmp.w	r3, #1024	@ 0x400
 8000558:	d101      	bne.n	800055e <LL_RCC_HSI_IsReady+0x18>
 800055a:	2301      	movs	r3, #1
 800055c:	e000      	b.n	8000560 <LL_RCC_HSI_IsReady+0x1a>
 800055e:	2300      	movs	r3, #0
}
 8000560:	4618      	mov	r0, r3
 8000562:	46bd      	mov	sp, r7
 8000564:	f85d 7b04 	ldr.w	r7, [sp], #4
 8000568:	4770      	bx	lr

0800056a <LL_RCC_SetSysClkSource>:
  *         @arg @ref LL_RCC_SYS_CLKSOURCE_HSE
  *         @arg @ref LL_RCC_SYS_CLKSOURCE_PLL
  * @retval None
  */
__STATIC_INLINE void LL_RCC_SetSysClkSource(uint32_t Source)
{
 800056a:	b480      	push	{r7}
 800056c:	b083      	sub	sp, #12
 800056e:	af00      	add	r7, sp, #0
 8000570:	6078      	str	r0, [r7, #4]
  MODIFY_REG(RCC->CFGR, RCC_CFGR_SW, Source);
 8000572:	f04f 43b0 	mov.w	r3, #1476395008	@ 0x58000000
 8000576:	689b      	ldr	r3, [r3, #8]
 8000578:	f023 0203 	bic.w	r2, r3, #3
 800057c:	f04f 41b0 	mov.w	r1, #1476395008	@ 0x58000000
 8000580:	687b      	ldr	r3, [r7, #4]
 8000582:	4313      	orrs	r3, r2
 8000584:	608b      	str	r3, [r1, #8]
}
 8000586:	bf00      	nop
 8000588:	370c      	adds	r7, #12
 800058a:	46bd      	mov	sp, r7
 800058c:	f85d 7b04 	ldr.w	r7, [sp], #4
 8000590:	4770      	bx	lr

08000592 <LL_RCC_GetSysClkSource>:
  *         @arg @ref LL_RCC_SYS_CLKSOURCE_STATUS_HSI
  *         @arg @ref LL_RCC_SYS_CLKSOURCE_STATUS_HSE
  *         @arg @ref LL_RCC_SYS_CLKSOURCE_STATUS_PLL
  */
__STATIC_INLINE uint32_t LL_RCC_GetSysClkSource(void)
{
 8000592:	b480      	push	{r7}
 8000594:	af00      	add	r7, sp, #0
  return (uint32_t)(READ_BIT(RCC->CFGR, RCC_CFGR_SWS));
 8000596:	f04f 43b0 	mov.w	r3, #1476395008	@ 0x58000000
 800059a:	689b      	ldr	r3, [r3, #8]
 800059c:	f003 030c 	and.w	r3, r3, #12
}
 80005a0:	4618      	mov	r0, r3
 80005a2:	46bd      	mov	sp, r7
 80005a4:	f85d 7b04 	ldr.w	r7, [sp], #4
 80005a8:	4770      	bx	lr

080005aa <LL_RCC_SetRFWKPClockSource>:
  * @note   (*) Value not defined for all devices
  *
  * @retval None
  */
__STATIC_INLINE void LL_RCC_SetRFWKPClockSource(uint32_t Source)
{
 80005aa:	b480      	push	{r7}
 80005ac:	b083      	sub	sp, #12
 80005ae:	af00      	add	r7, sp, #0
 80005b0:	6078      	str	r0, [r7, #4]
  MODIFY_REG(RCC->CSR, RCC_CSR_RFWKPSEL, Source);
 80005b2:	f04f 43b0 	mov.w	r3, #1476395008	@ 0x58000000
 80005b6:	f8d3 3094 	ldr.w	r3, [r3, #148]	@ 0x94
 80005ba:	f423 4240 	bic.w	r2, r3, #49152	@ 0xc000
 80005be:	f04f 41b0 	mov.w	r1, #1476395008	@ 0x58000000
 80005c2:	687b      	ldr	r3, [r7, #4]
 80005c4:	4313      	orrs	r3, r2
 80005c6:	f8c1 3094 	str.w	r3, [r1, #148]	@ 0x94
}
 80005ca:	bf00      	nop
 80005cc:	370c      	adds	r7, #12
 80005ce:	46bd      	mov	sp, r7
 80005d0:	f85d 7b04 	ldr.w	r7, [sp], #4
 80005d4:	4770      	bx	lr

080005d6 <LL_RCC_SetAHBPrescaler>:
  *         @arg @ref LL_RCC_SYSCLK_DIV_256
  *         @arg @ref LL_RCC_SYSCLK_DIV_512
  * @retval None
  */
__STATIC_INLINE void LL_RCC_SetAHBPrescaler(uint32_t Prescaler)
{
 80005d6:	b480      	push	{r7}
 80005d8:	b083      	sub	sp, #12
 80005da:	af00      	add	r7, sp, #0
 80005dc:	6078      	str	r0, [r7, #4]
  MODIFY_REG(RCC->CFGR, RCC_CFGR_HPRE, Prescaler);
 80005de:	f04f 43b0 	mov.w	r3, #1476395008	@ 0x58000000
 80005e2:	689b      	ldr	r3, [r3, #8]
 80005e4:	f023 02f0 	bic.w	r2, r3, #240	@ 0xf0
 80005e8:	f04f 41b0 	mov.w	r1, #1476395008	@ 0x58000000
 80005ec:	687b      	ldr	r3, [r7, #4]
 80005ee:	4313      	orrs	r3, r2
 80005f0:	608b      	str	r3, [r1, #8]
}
 80005f2:	bf00      	nop
 80005f4:	370c      	adds	r7, #12
 80005f6:	46bd      	mov	sp, r7
 80005f8:	f85d 7b04 	ldr.w	r7, [sp], #4
 80005fc:	4770      	bx	lr

080005fe <LL_C2_RCC_SetAHBPrescaler>:
  *         @arg @ref LL_RCC_SYSCLK_DIV_256
  *         @arg @ref LL_RCC_SYSCLK_DIV_512
  * @retval None
  */
__STATIC_INLINE void LL_C2_RCC_SetAHBPrescaler(uint32_t Prescaler)
{
 80005fe:	b480      	push	{r7}
 8000600:	b083      	sub	sp, #12
 8000602:	af00      	add	r7, sp, #0
 8000604:	6078      	str	r0, [r7, #4]
  MODIFY_REG(RCC->EXTCFGR, RCC_EXTCFGR_C2HPRE, Prescaler);
 8000606:	f04f 43b0 	mov.w	r3, #1476395008	@ 0x58000000
 800060a:	f8d3 3108 	ldr.w	r3, [r3, #264]	@ 0x108
 800060e:	f023 02f0 	bic.w	r2, r3, #240	@ 0xf0
 8000612:	f04f 41b0 	mov.w	r1, #1476395008	@ 0x58000000
 8000616:	687b      	ldr	r3, [r7, #4]
 8000618:	4313      	orrs	r3, r2
 800061a:	f8c1 3108 	str.w	r3, [r1, #264]	@ 0x108
}
 800061e:	bf00      	nop
 8000620:	370c      	adds	r7, #12
 8000622:	46bd      	mov	sp, r7
 8000624:	f85d 7b04 	ldr.w	r7, [sp], #4
 8000628:	4770      	bx	lr

0800062a <LL_RCC_SetAHB4Prescaler>:
  *         @arg @ref LL_RCC_SYSCLK_DIV_256
  *         @arg @ref LL_RCC_SYSCLK_DIV_512
  * @retval None
  */
__STATIC_INLINE void LL_RCC_SetAHB4Prescaler(uint32_t Prescaler)
{
 800062a:	b480      	push	{r7}
 800062c:	b083      	sub	sp, #12
 800062e:	af00      	add	r7, sp, #0
 8000630:	6078      	str	r0, [r7, #4]
  MODIFY_REG(RCC->EXTCFGR, RCC_EXTCFGR_SHDHPRE, Prescaler >> 4);
 8000632:	f04f 43b0 	mov.w	r3, #1476395008	@ 0x58000000
 8000636:	f8d3 3108 	ldr.w	r3, [r3, #264]	@ 0x108
 800063a:	f023 020f 	bic.w	r2, r3, #15
 800063e:	687b      	ldr	r3, [r7, #4]
 8000640:	091b      	lsrs	r3, r3, #4
 8000642:	f04f 41b0 	mov.w	r1, #1476395008	@ 0x58000000
 8000646:	4313      	orrs	r3, r2
 8000648:	f8c1 3108 	str.w	r3, [r1, #264]	@ 0x108
}
 800064c:	bf00      	nop
 800064e:	370c      	adds	r7, #12
 8000650:	46bd      	mov	sp, r7
 8000652:	f85d 7b04 	ldr.w	r7, [sp], #4
 8000656:	4770      	bx	lr

08000658 <LL_RCC_SetAPB1Prescaler>:
  *         @arg @ref LL_RCC_APB1_DIV_8
  *         @arg @ref LL_RCC_APB1_DIV_16
  * @retval None
  */
__STATIC_INLINE void LL_RCC_SetAPB1Prescaler(uint32_t Prescaler)
{
 8000658:	b480      	push	{r7}
 800065a:	b083      	sub	sp, #12
 800065c:	af00      	add	r7, sp, #0
 800065e:	6078      	str	r0, [r7, #4]
  MODIFY_REG(RCC->CFGR, RCC_CFGR_PPRE1, Prescaler);
 8000660:	f04f 43b0 	mov.w	r3, #1476395008	@ 0x58000000
 8000664:	689b      	ldr	r3, [r3, #8]
 8000666:	f423 62e0 	bic.w	r2, r3, #1792	@ 0x700
 800066a:	f04f 41b0 	mov.w	r1, #1476395008	@ 0x58000000
 800066e:	687b      	ldr	r3, [r7, #4]
 8000670:	4313      	orrs	r3, r2
 8000672:	608b      	str	r3, [r1, #8]
}
 8000674:	bf00      	nop
 8000676:	370c      	adds	r7, #12
 8000678:	46bd      	mov	sp, r7
 800067a:	f85d 7b04 	ldr.w	r7, [sp], #4
 800067e:	4770      	bx	lr

08000680 <LL_RCC_SetAPB2Prescaler>:
  *         @arg @ref LL_RCC_APB2_DIV_8
  *         @arg @ref LL_RCC_APB2_DIV_16
  * @retval None
  */
__STATIC_INLINE void LL_RCC_SetAPB2Prescaler(uint32_t Prescaler)
{
 8000680:	b480      	push	{r7}
 8000682:	b083      	sub	sp, #12
 8000684:	af00      	add	r7, sp, #0
 8000686:	6078      	str	r0, [r7, #4]
  MODIFY_REG(RCC->CFGR, RCC_CFGR_PPRE2, Prescaler);
 8000688:	f04f 43b0 	mov.w	r3, #1476395008	@ 0x58000000
 800068c:	689b      	ldr	r3, [r3, #8]
 800068e:	f423 5260 	bic.w	r2, r3, #14336	@ 0x3800
 8000692:	f04f 41b0 	mov.w	r1, #1476395008	@ 0x58000000
 8000696:	687b      	ldr	r3, [r7, #4]
 8000698:	4313      	orrs	r3, r2
 800069a:	608b      	str	r3, [r1, #8]
}
 800069c:	bf00      	nop
 800069e:	370c      	adds	r7, #12
 80006a0:	46bd      	mov	sp, r7
 80006a2:	f85d 7b04 	ldr.w	r7, [sp], #4
 80006a6:	4770      	bx	lr

080006a8 <LL_RCC_SetSMPSClockSource>:
  *          clock source when a supported SMPS Step Down converter clock
  *          MSIRANGE is set (LL_RCC_MSIRANGE_8 to LL_RCC_MSIRANGE_11)
  * @retval None
  */
__STATIC_INLINE void LL_RCC_SetSMPSClockSource(uint32_t SMPSSource)
{
 80006a8:	b480      	push	{r7}
 80006aa:	b083      	sub	sp, #12
 80006ac:	af00      	add	r7, sp, #0
 80006ae:	6078      	str	r0, [r7, #4]
  MODIFY_REG(RCC->SMPSCR, RCC_SMPSCR_SMPSSEL, SMPSSource);
 80006b0:	f04f 43b0 	mov.w	r3, #1476395008	@ 0x58000000
 80006b4:	6a5b      	ldr	r3, [r3, #36]	@ 0x24
 80006b6:	f023 0203 	bic.w	r2, r3, #3
 80006ba:	f04f 41b0 	mov.w	r1, #1476395008	@ 0x58000000
 80006be:	687b      	ldr	r3, [r7, #4]
 80006c0:	4313      	orrs	r3, r2
 80006c2:	624b      	str	r3, [r1, #36]	@ 0x24
}
 80006c4:	bf00      	nop
 80006c6:	370c      	adds	r7, #12
 80006c8:	46bd      	mov	sp, r7
 80006ca:	f85d 7b04 	ldr.w	r7, [sp], #4
 80006ce:	4770      	bx	lr

080006d0 <LL_RCC_SetSMPSPrescaler>:
  *         @arg @ref LL_RCC_SMPS_DIV_2
  *         @arg @ref LL_RCC_SMPS_DIV_3
  * @retval None
  */
__STATIC_INLINE void LL_RCC_SetSMPSPrescaler(uint32_t Prescaler)
{
 80006d0:	b480      	push	{r7}
 80006d2:	b083      	sub	sp, #12
 80006d4:	af00      	add	r7, sp, #0
 80006d6:	6078      	str	r0, [r7, #4]
  MODIFY_REG(RCC->SMPSCR, RCC_SMPSCR_SMPSDIV, Prescaler);
 80006d8:	f04f 43b0 	mov.w	r3, #1476395008	@ 0x58000000
 80006dc:	6a5b      	ldr	r3, [r3, #36]	@ 0x24
 80006de:	f023 0230 	bic.w	r2, r3, #48	@ 0x30
 80006e2:	f04f 41b0 	mov.w	r1, #1476395008	@ 0x58000000
 80006e6:	687b      	ldr	r3, [r7, #4]
 80006e8:	4313      	orrs	r3, r2
 80006ea:	624b      	str	r3, [r1, #36]	@ 0x24
}
 80006ec:	bf00      	nop
 80006ee:	370c      	adds	r7, #12
 80006f0:	46bd      	mov	sp, r7
 80006f2:	f85d 7b04 	ldr.w	r7, [sp], #4
 80006f6:	4770      	bx	lr

080006f8 <LL_RCC_PLL_Enable>:
  * @brief  Enable PLL
  * @rmtoll CR           PLLON         LL_RCC_PLL_Enable
  * @retval None
  */
__STATIC_INLINE void LL_RCC_PLL_Enable(void)
{
 80006f8:	b480      	push	{r7}
 80006fa:	af00      	add	r7, sp, #0
  SET_BIT(RCC->CR, RCC_CR_PLLON);
 80006fc:	f04f 43b0 	mov.w	r3, #1476395008	@ 0x58000000
 8000700:	681b      	ldr	r3, [r3, #0]
 8000702:	f04f 42b0 	mov.w	r2, #1476395008	@ 0x58000000
 8000706:	f043 7380 	orr.w	r3, r3, #16777216	@ 0x1000000
 800070a:	6013      	str	r3, [r2, #0]
}
 800070c:	bf00      	nop
 800070e:	46bd      	mov	sp, r7
 8000710:	f85d 7b04 	ldr.w	r7, [sp], #4
 8000714:	4770      	bx	lr

08000716 <LL_RCC_PLL_IsReady>:
  * @brief  Check if PLL Ready
  * @rmtoll CR           PLLRDY        LL_RCC_PLL_IsReady
  * @retval State of bit (1 or 0).
  */
__STATIC_INLINE uint32_t LL_RCC_PLL_IsReady(void)
{
 8000716:	b480      	push	{r7}
 8000718:	af00      	add	r7, sp, #0
  return ((READ_BIT(RCC->CR, RCC_CR_PLLRDY) == (RCC_CR_PLLRDY)) ? 1UL : 0UL);
 800071a:	f04f 43b0 	mov.w	r3, #1476395008	@ 0x58000000
 800071e:	681b      	ldr	r3, [r3, #0]
 8000720:	f003 7300 	and.w	r3, r3, #33554432	@ 0x2000000
 8000724:	f1b3 7f00 	cmp.w	r3, #33554432	@ 0x2000000
 8000728:	d101      	bne.n	800072e <LL_RCC_PLL_IsReady+0x18>
 800072a:	2301      	movs	r3, #1
 800072c:	e000      	b.n	8000730 <LL_RCC_PLL_IsReady+0x1a>
 800072e:	2300      	movs	r3, #0
}
 8000730:	4618      	mov	r0, r3
 8000732:	46bd      	mov	sp, r7
 8000734:	f85d 7b04 	ldr.w	r7, [sp], #4
 8000738:	4770      	bx	lr
	...

0800073c <LL_RCC_PLL_ConfigDomain_SYS>:
  *         @arg @ref LL_RCC_PLLR_DIV_6
  *         @arg @ref LL_RCC_PLLR_DIV_8
  * @retval None
  */
__STATIC_INLINE void LL_RCC_PLL_ConfigDomain_SYS(uint32_t Source, uint32_t PLLM, uint32_t PLLN, uint32_t PLLR)
{
 800073c:	b480      	push	{r7}
 800073e:	b085      	sub	sp, #20
 8000740:	af00      	add	r7, sp, #0
 8000742:	60f8      	str	r0, [r7, #12]
 8000744:	60b9      	str	r1, [r7, #8]
 8000746:	607a      	str	r2, [r7, #4]
 8000748:	603b      	str	r3, [r7, #0]
  MODIFY_REG(RCC->PLLCFGR, RCC_PLLCFGR_PLLSRC | RCC_PLLCFGR_PLLM | RCC_PLLCFGR_PLLN | RCC_PLLCFGR_PLLR,
 800074a:	f04f 43b0 	mov.w	r3, #1476395008	@ 0x58000000
 800074e:	68da      	ldr	r2, [r3, #12]
 8000750:	4b09      	ldr	r3, [pc, #36]	@ (8000778 <LL_RCC_PLL_ConfigDomain_SYS+0x3c>)
 8000752:	4013      	ands	r3, r2
 8000754:	68f9      	ldr	r1, [r7, #12]
 8000756:	68ba      	ldr	r2, [r7, #8]
 8000758:	4311      	orrs	r1, r2
 800075a:	687a      	ldr	r2, [r7, #4]
 800075c:	0212      	lsls	r2, r2, #8
 800075e:	4311      	orrs	r1, r2
 8000760:	683a      	ldr	r2, [r7, #0]
 8000762:	430a      	orrs	r2, r1
 8000764:	f04f 41b0 	mov.w	r1, #1476395008	@ 0x58000000
 8000768:	4313      	orrs	r3, r2
 800076a:	60cb      	str	r3, [r1, #12]
             Source | PLLM | (PLLN << RCC_PLLCFGR_PLLN_Pos) | PLLR);
}
 800076c:	bf00      	nop
 800076e:	3714      	adds	r7, #20
 8000770:	46bd      	mov	sp, r7
 8000772:	f85d 7b04 	ldr.w	r7, [sp], #4
 8000776:	4770      	bx	lr
 8000778:	1fff808c 	.word	0x1fff808c

0800077c <LL_RCC_PLL_EnableDomain_SYS>:
  * @brief  Enable PLL output mapped on SYSCLK domain
  * @rmtoll PLLCFGR      PLLREN        LL_RCC_PLL_EnableDomain_SYS
  * @retval None
  */
__STATIC_INLINE void LL_RCC_PLL_EnableDomain_SYS(void)
{
 800077c:	b480      	push	{r7}
 800077e:	af00      	add	r7, sp, #0
  SET_BIT(RCC->PLLCFGR, RCC_PLLCFGR_PLLREN);
 8000780:	f04f 43b0 	mov.w	r3, #1476395008	@ 0x58000000
 8000784:	68db      	ldr	r3, [r3, #12]
 8000786:	f04f 42b0 	mov.w	r2, #1476395008	@ 0x58000000
 800078a:	f043 5380 	orr.w	r3, r3, #268435456	@ 0x10000000
 800078e:	60d3      	str	r3, [r2, #12]
}
 8000790:	bf00      	nop
 8000792:	46bd      	mov	sp, r7
 8000794:	f85d 7b04 	ldr.w	r7, [sp], #4
 8000798:	4770      	bx	lr
	...

0800079c <LL_FLASH_SetLatency>:
  *         @arg @ref LL_FLASH_LATENCY_2
  *         @arg @ref LL_FLASH_LATENCY_3
  * @retval None
  */
__STATIC_INLINE void LL_FLASH_SetLatency(uint32_t Latency)
{
 800079c:	b480      	push	{r7}
 800079e:	b083      	sub	sp, #12
 80007a0:	af00      	add	r7, sp, #0
 80007a2:	6078      	str	r0, [r7, #4]
  MODIFY_REG(FLASH->ACR, FLASH_ACR_LATENCY, Latency);
 80007a4:	4b06      	ldr	r3, [pc, #24]	@ (80007c0 <LL_FLASH_SetLatency+0x24>)
 80007a6:	681b      	ldr	r3, [r3, #0]
 80007a8:	f023 0207 	bic.w	r2, r3, #7
 80007ac:	4904      	ldr	r1, [pc, #16]	@ (80007c0 <LL_FLASH_SetLatency+0x24>)
 80007ae:	687b      	ldr	r3, [r7, #4]
 80007b0:	4313      	orrs	r3, r2
 80007b2:	600b      	str	r3, [r1, #0]
}
 80007b4:	bf00      	nop
 80007b6:	370c      	adds	r7, #12
 80007b8:	46bd      	mov	sp, r7
 80007ba:	f85d 7b04 	ldr.w	r7, [sp], #4
 80007be:	4770      	bx	lr
 80007c0:	58004000 	.word	0x58004000

080007c4 <LL_FLASH_GetLatency>:
  *         @arg @ref LL_FLASH_LATENCY_1
  *         @arg @ref LL_FLASH_LATENCY_2
  *         @arg @ref LL_FLASH_LATENCY_3
  */
__STATIC_INLINE uint32_t LL_FLASH_GetLatency(void)
{
 80007c4:	b480      	push	{r7}
 80007c6:	af00      	add	r7, sp, #0
  return (uint32_t)(READ_BIT(FLASH->ACR, FLASH_ACR_LATENCY));
 80007c8:	4b04      	ldr	r3, [pc, #16]	@ (80007dc <LL_FLASH_GetLatency+0x18>)
 80007ca:	681b      	ldr	r3, [r3, #0]
 80007cc:	f003 0307 	and.w	r3, r3, #7
}
 80007d0:	4618      	mov	r0, r3
 80007d2:	46bd      	mov	sp, r7
 80007d4:	f85d 7b04 	ldr.w	r7, [sp], #4
 80007d8:	4770      	bx	lr
 80007da:	bf00      	nop
 80007dc:	58004000 	.word	0x58004000

080007e0 <main>:
/**
  * @brief  The application entry point.
  * @retval int
  */
int main( void )
{
 80007e0:	b580      	push	{r7, lr}
 80007e2:	af00      	add	r7, sp, #0
  /* MCU Configuration--------------------------------------------------------*/

  /* Reset of all peripherals, Initializes the Flash interface and the Systick. */

  /* System interrupt init*/
  NVIC_SetPriorityGrouping( NVIC_PRIORITYGROUP_4 );
 80007e4:	2003      	movs	r0, #3
 80007e6:	f7ff fdef 	bl	80003c8 <__NVIC_SetPriorityGrouping>

  /* SysTick_IRQn interrupt configuration */
  NVIC_SetPriority( SysTick_IRQn, NVIC_EncodePriority( NVIC_GetPriorityGrouping(), 15, 0 ) );
 80007ea:	f7ff fe11 	bl	8000410 <__NVIC_GetPriorityGrouping>
 80007ee:	4603      	mov	r3, r0
 80007f0:	2200      	movs	r2, #0
 80007f2:	210f      	movs	r1, #15
 80007f4:	4618      	mov	r0, r3
 80007f6:	f7ff fe43 	bl	8000480 <NVIC_EncodePriority>
 80007fa:	4603      	mov	r3, r0
 80007fc:	4619      	mov	r1, r3
 80007fe:	f04f 30ff 	mov.w	r0, #4294967295
 8000802:	f7ff fe13 	bl	800042c <__NVIC_SetPriority>
  /* USER CODE BEGIN Init */

  /* USER CODE END Init */

  /* Configure the system clock */
  SystemClock_Config();
 8000806:	f000 f80b 	bl	8000820 <SystemClock_Config>

  /* Configure the peripherals common clocks */
  PeriphCommonClock_Config();
 800080a:	f000 f857 	bl	80008bc <PeriphCommonClock_Config>
  /* USER CODE BEGIN SysInit */

  /* USER CODE END SysInit */

  /* Initialize all configured peripherals */
  MX_GPIO_Init();
 800080e:	f7ff fdce 	bl	80003ae <MX_GPIO_Init>
  MX_USART1_UART_Init();
 8000812:	f000 fa71 	bl	8000cf8 <MX_USART1_UART_Init>
  /* USER CODE BEGIN 2 */
  SerialItEnable();
 8000816:	f7ff fd33 	bl	8000280 <SerialItEnable>
  /* USER CODE END 2 */

  /* Infinite loop */
  /* USER CODE BEGIN WHILE */
  while ( 1 )
 800081a:	bf00      	nop
 800081c:	e7fd      	b.n	800081a <main+0x3a>
	...

08000820 <SystemClock_Config>:
/**
  * @brief System Clock Configuration
  * @retval None
  */
void SystemClock_Config( void )
{
 8000820:	b580      	push	{r7, lr}
 8000822:	af00      	add	r7, sp, #0
  LL_FLASH_SetLatency( LL_FLASH_LATENCY_3 );
 8000824:	2003      	movs	r0, #3
 8000826:	f7ff ffb9 	bl	800079c <LL_FLASH_SetLatency>
  while ( LL_FLASH_GetLatency() != LL_FLASH_LATENCY_3 )
 800082a:	bf00      	nop
 800082c:	f7ff ffca 	bl	80007c4 <LL_FLASH_GetLatency>
 8000830:	4603      	mov	r3, r0
 8000832:	2b03      	cmp	r3, #3
 8000834:	d1fa      	bne.n	800082c <SystemClock_Config+0xc>
  {
  }

  /* HSE configuration and activation */
  LL_RCC_HSE_Enable();
 8000836:	f7ff fe56 	bl	80004e6 <LL_RCC_HSE_Enable>
  while ( LL_RCC_HSE_IsReady() != 1 )
 800083a:	bf00      	nop
 800083c:	f7ff fe62 	bl	8000504 <LL_RCC_HSE_IsReady>
 8000840:	4603      	mov	r3, r0
 8000842:	2b01      	cmp	r3, #1
 8000844:	d1fa      	bne.n	800083c <SystemClock_Config+0x1c>
  {
  }

  /* HSI configuration and activation */
  LL_RCC_HSI_Enable();
 8000846:	f7ff fe6f 	bl	8000528 <LL_RCC_HSI_Enable>
  while ( LL_RCC_HSI_IsReady() != 1 )
 800084a:	bf00      	nop
 800084c:	f7ff fe7b 	bl	8000546 <LL_RCC_HSI_IsReady>
 8000850:	4603      	mov	r3, r0
 8000852:	2b01      	cmp	r3, #1
 8000854:	d1fa      	bne.n	800084c <SystemClock_Config+0x2c>
  {
  }

  /* Main PLL configuration and activation */
  LL_RCC_PLL_ConfigDomain_SYS( LL_RCC_PLLSOURCE_HSE, LL_RCC_PLLM_DIV_2, 8, LL_RCC_PLLR_DIV_2 );
 8000856:	f04f 5300 	mov.w	r3, #536870912	@ 0x20000000
 800085a:	2208      	movs	r2, #8
 800085c:	2110      	movs	r1, #16
 800085e:	2003      	movs	r0, #3
 8000860:	f7ff ff6c 	bl	800073c <LL_RCC_PLL_ConfigDomain_SYS>
  LL_RCC_PLL_Enable();
 8000864:	f7ff ff48 	bl	80006f8 <LL_RCC_PLL_Enable>
  LL_RCC_PLL_EnableDomain_SYS();
 8000868:	f7ff ff88 	bl	800077c <LL_RCC_PLL_EnableDomain_SYS>
  while ( LL_RCC_PLL_IsReady() != 1 )
 800086c:	bf00      	nop
 800086e:	f7ff ff52 	bl	8000716 <LL_RCC_PLL_IsReady>
 8000872:	4603      	mov	r3, r0
 8000874:	2b01      	cmp	r3, #1
 8000876:	d1fa      	bne.n	800086e <SystemClock_Config+0x4e>
  {
  }

  /* Sysclk activation on the main PLL */
  /* Set CPU1 prescaler*/
  LL_RCC_SetAHBPrescaler( LL_RCC_SYSCLK_DIV_1 );
 8000878:	2000      	movs	r0, #0
 800087a:	f7ff feac 	bl	80005d6 <LL_RCC_SetAHBPrescaler>

  /* Set CPU2 prescaler*/
  LL_C2_RCC_SetAHBPrescaler( LL_RCC_SYSCLK_DIV_2 );
 800087e:	2080      	movs	r0, #128	@ 0x80
 8000880:	f7ff febd 	bl	80005fe <LL_C2_RCC_SetAHBPrescaler>

  LL_RCC_SetSysClkSource( LL_RCC_SYS_CLKSOURCE_PLL );
 8000884:	2003      	movs	r0, #3
 8000886:	f7ff fe70 	bl	800056a <LL_RCC_SetSysClkSource>
  while ( LL_RCC_GetSysClkSource() != LL_RCC_SYS_CLKSOURCE_STATUS_PLL )
 800088a:	bf00      	nop
 800088c:	f7ff fe81 	bl	8000592 <LL_RCC_GetSysClkSource>
 8000890:	4603      	mov	r3, r0
 8000892:	2b0c      	cmp	r3, #12
 8000894:	d1fa      	bne.n	800088c <SystemClock_Config+0x6c>
  {
  }

  /* Set AHB SHARED prescaler*/
  LL_RCC_SetAHB4Prescaler( LL_RCC_SYSCLK_DIV_1 );
 8000896:	2000      	movs	r0, #0
 8000898:	f7ff fec7 	bl	800062a <LL_RCC_SetAHB4Prescaler>

  /* Set APB1 prescaler*/
  LL_RCC_SetAPB1Prescaler( LL_RCC_APB1_DIV_1 );
 800089c:	2000      	movs	r0, #0
 800089e:	f7ff fedb 	bl	8000658 <LL_RCC_SetAPB1Prescaler>

  /* Set APB2 prescaler*/
  LL_RCC_SetAPB2Prescaler( LL_RCC_APB2_DIV_1 );
 80008a2:	2000      	movs	r0, #0
 80008a4:	f7ff feec 	bl	8000680 <LL_RCC_SetAPB2Prescaler>

  LL_Init1msTick( 64000000 );
 80008a8:	4803      	ldr	r0, [pc, #12]	@ (80008b8 <SystemClock_Config+0x98>)
 80008aa:	f001 f90d 	bl	8001ac8 <LL_Init1msTick>

  /* Update CMSIS variable (which can be updated also through SystemCoreClockUpdate function) */
  LL_SetSystemCoreClock( 64000000 );
 80008ae:	4802      	ldr	r0, [pc, #8]	@ (80008b8 <SystemClock_Config+0x98>)
 80008b0:	f001 f918 	bl	8001ae4 <LL_SetSystemCoreClock>
}
 80008b4:	bf00      	nop
 80008b6:	bd80      	pop	{r7, pc}
 80008b8:	03d09000 	.word	0x03d09000

080008bc <PeriphCommonClock_Config>:
/**
  * @brief Peripherals Common Clock Configuration
  * @retval None
  */
void PeriphCommonClock_Config( void )
{
 80008bc:	b580      	push	{r7, lr}
 80008be:	af00      	add	r7, sp, #0
  LL_RCC_SetSMPSClockSource( LL_RCC_SMPS_CLKSOURCE_HSI );
 80008c0:	2000      	movs	r0, #0
 80008c2:	f7ff fef1 	bl	80006a8 <LL_RCC_SetSMPSClockSource>
  LL_RCC_SetSMPSPrescaler( LL_RCC_SMPS_DIV_1 );
 80008c6:	2010      	movs	r0, #16
 80008c8:	f7ff ff02 	bl	80006d0 <LL_RCC_SetSMPSPrescaler>
  LL_RCC_SetRFWKPClockSource( LL_RCC_RFWKP_CLKSOURCE_NONE );
 80008cc:	2000      	movs	r0, #0
 80008ce:	f7ff fe6c 	bl	80005aa <LL_RCC_SetRFWKPClockSource>
  /* USER CODE BEGIN Smps */

  /* USER CODE END Smps */
}
 80008d2:	bf00      	nop
 80008d4:	bd80      	pop	{r7, pc}

080008d6 <assert_failed>:
  * @param  file: pointer to the source file name
  * @param  line: assert_param error line source number
  * @retval None
  */
void assert_failed( uint8_t * file, uint32_t line )
{
 80008d6:	b480      	push	{r7}
 80008d8:	b083      	sub	sp, #12
 80008da:	af00      	add	r7, sp, #0
 80008dc:	6078      	str	r0, [r7, #4]
 80008de:	6039      	str	r1, [r7, #0]
  /* USER CODE BEGIN 6 */
  /* User can add his own implementation to report the file name and line number,
     ex: printf("Wrong parameters value: file %s on line %d\r\n", file, line) */
     /* USER CODE END 6 */
}
 80008e0:	bf00      	nop
 80008e2:	370c      	adds	r7, #12
 80008e4:	46bd      	mov	sp, r7
 80008e6:	f85d 7b04 	ldr.w	r7, [sp], #4
 80008ea:	4770      	bx	lr

080008ec <NMI_Handler>:
/******************************************************************************/
/**
  * @brief This function handles Non maskable interrupt.
  */
void NMI_Handler( void )
{
 80008ec:	b480      	push	{r7}
 80008ee:	af00      	add	r7, sp, #0
  /* USER CODE BEGIN NonMaskableInt_IRQn 0 */

  /* USER CODE END NonMaskableInt_IRQn 0 */
  /* USER CODE BEGIN NonMaskableInt_IRQn 1 */
  while ( 1 )
 80008f0:	bf00      	nop
 80008f2:	e7fd      	b.n	80008f0 <NMI_Handler+0x4>

080008f4 <HardFault_Handler>:

/**
  * @brief This function handles Hard fault interrupt.
  */
void HardFault_Handler( void )
{
 80008f4:	b480      	push	{r7}
 80008f6:	af00      	add	r7, sp, #0
  /* USER CODE BEGIN HardFault_IRQn 0 */

  /* USER CODE END HardFault_IRQn 0 */
  while ( 1 )
 80008f8:	bf00      	nop
 80008fa:	e7fd      	b.n	80008f8 <HardFault_Handler+0x4>

080008fc <MemManage_Handler>:

/**
  * @brief This function handles Memory management fault.
  */
void MemManage_Handler( void )
{
 80008fc:	b480      	push	{r7}
 80008fe:	af00      	add	r7, sp, #0
  /* USER CODE BEGIN MemoryManagement_IRQn 0 */

  /* USER CODE END MemoryManagement_IRQn 0 */
  while ( 1 )
 8000900:	bf00      	nop
 8000902:	e7fd      	b.n	8000900 <MemManage_Handler+0x4>

08000904 <BusFault_Handler>:

/**
  * @brief This function handles Prefetch fault, memory access fault.
  */
void BusFault_Handler( void )
{
 8000904:	b480      	push	{r7}
 8000906:	af00      	add	r7, sp, #0
  /* USER CODE BEGIN BusFault_IRQn 0 */

  /* USER CODE END BusFault_IRQn 0 */
  while ( 1 )
 8000908:	bf00      	nop
 800090a:	e7fd      	b.n	8000908 <BusFault_Handler+0x4>

0800090c <UsageFault_Handler>:

/**
  * @brief This function handles Undefined instruction or illegal state.
  */
void UsageFault_Handler( void )
{
 800090c:	b480      	push	{r7}
 800090e:	af00      	add	r7, sp, #0
  /* USER CODE BEGIN UsageFault_IRQn 0 */

  /* USER CODE END UsageFault_IRQn 0 */
  while ( 1 )
 8000910:	bf00      	nop
 8000912:	e7fd      	b.n	8000910 <UsageFault_Handler+0x4>

08000914 <SVC_Handler>:

/**
  * @brief This function handles System service call via SWI instruction.
  */
void SVC_Handler( void )
{
 8000914:	b480      	push	{r7}
 8000916:	af00      	add	r7, sp, #0

  /* USER CODE END SVCall_IRQn 0 */
  /* USER CODE BEGIN SVCall_IRQn 1 */

  /* USER CODE END SVCall_IRQn 1 */
}
 8000918:	bf00      	nop
 800091a:	46bd      	mov	sp, r7
 800091c:	f85d 7b04 	ldr.w	r7, [sp], #4
 8000920:	4770      	bx	lr

08000922 <DebugMon_Handler>:

/**
  * @brief This function handles Debug monitor.
  */
void DebugMon_Handler( void )
{
 8000922:	b480      	push	{r7}
 8000924:	af00      	add	r7, sp, #0

  /* USER CODE END DebugMonitor_IRQn 0 */
  /* USER CODE BEGIN DebugMonitor_IRQn 1 */

  /* USER CODE END DebugMonitor_IRQn 1 */
}
 8000926:	bf00      	nop
 8000928:	46bd      	mov	sp, r7
 800092a:	f85d 7b04 	ldr.w	r7, [sp], #4
 800092e:	4770      	bx	lr

08000930 <PendSV_Handler>:

/**
  * @brief This function handles Pendable request for system service.
  */
void PendSV_Handler( void )
{
 8000930:	b480      	push	{r7}
 8000932:	af00      	add	r7, sp, #0

  /* USER CODE END PendSV_IRQn 0 */
  /* USER CODE BEGIN PendSV_IRQn 1 */

  /* USER CODE END PendSV_IRQn 1 */
}
 8000934:	bf00      	nop
 8000936:	46bd      	mov	sp, r7
 8000938:	f85d 7b04 	ldr.w	r7, [sp], #4
 800093c:	4770      	bx	lr

0800093e <SysTick_Handler>:

/**
  * @brief This function handles System tick timer.
  */
void SysTick_Handler( void )
{
 800093e:	b480      	push	{r7}
 8000940:	af00      	add	r7, sp, #0
  /* USER CODE END SysTick_IRQn 0 */

  /* USER CODE BEGIN SysTick_IRQn 1 */

  /* USER CODE END SysTick_IRQn 1 */
}
 8000942:	bf00      	nop
 8000944:	46bd      	mov	sp, r7
 8000946:	f85d 7b04 	ldr.w	r7, [sp], #4
 800094a:	4770      	bx	lr

0800094c <USART1_IRQHandler>:

/**
  * @brief This function handles USART1 global interrupt.
  */
void USART1_IRQHandler( void )
{
 800094c:	b580      	push	{r7, lr}
 800094e:	af00      	add	r7, sp, #0
  /* USER CODE BEGIN USART1_IRQn 0 */
  SerialItIrq();
 8000950:	f7ff fca6 	bl	80002a0 <SerialItIrq>
  /* USER CODE END USART1_IRQn 0 */
  /* USER CODE BEGIN USART1_IRQn 1 */

  /* USER CODE END USART1_IRQn 1 */
}
 8000954:	bf00      	nop
 8000956:	bd80      	pop	{r7, pc}

08000958 <SystemInit>:
  * @brief  Setup the microcontroller system.
  * @param  None
  * @retval None
  */
void SystemInit(void)
{
 8000958:	b480      	push	{r7}
 800095a:	af00      	add	r7, sp, #0
  SCB->VTOR = VECT_TAB_BASE_ADDRESS | VECT_TAB_OFFSET;
#endif /* USER_VECT_TAB_ADDRESS */

  /* FPU settings ------------------------------------------------------------*/
#if (__FPU_PRESENT == 1) && (__FPU_USED == 1)
  SCB->CPACR |= ((3UL << (10UL * 2UL)) | (3UL << (11UL * 2UL))); /* set CP10 and CP11 Full Access */
 800095c:	4b24      	ldr	r3, [pc, #144]	@ (80009f0 <SystemInit+0x98>)
 800095e:	f8d3 3088 	ldr.w	r3, [r3, #136]	@ 0x88
 8000962:	4a23      	ldr	r2, [pc, #140]	@ (80009f0 <SystemInit+0x98>)
 8000964:	f443 0370 	orr.w	r3, r3, #15728640	@ 0xf00000
 8000968:	f8c2 3088 	str.w	r3, [r2, #136]	@ 0x88
#endif /* FPU */

  /* Reset the RCC clock configuration to the default reset state ------------*/
  /* Set MSION bit */
  RCC->CR |= RCC_CR_MSION;
 800096c:	f04f 43b0 	mov.w	r3, #1476395008	@ 0x58000000
 8000970:	681b      	ldr	r3, [r3, #0]
 8000972:	f04f 42b0 	mov.w	r2, #1476395008	@ 0x58000000
 8000976:	f043 0301 	orr.w	r3, r3, #1
 800097a:	6013      	str	r3, [r2, #0]

  /* Reset CFGR register */
  RCC->CFGR = 0x00070000U;
 800097c:	f04f 43b0 	mov.w	r3, #1476395008	@ 0x58000000
 8000980:	f44f 22e0 	mov.w	r2, #458752	@ 0x70000
 8000984:	609a      	str	r2, [r3, #8]

  /* Reset PLLSAI1ON, PLLON, HSECSSON, HSEON, HSION, and MSIPLLON bits */
  RCC->CR &= (uint32_t)0xFAF6FEFBU;
 8000986:	f04f 43b0 	mov.w	r3, #1476395008	@ 0x58000000
 800098a:	681a      	ldr	r2, [r3, #0]
 800098c:	f04f 41b0 	mov.w	r1, #1476395008	@ 0x58000000
 8000990:	4b18      	ldr	r3, [pc, #96]	@ (80009f4 <SystemInit+0x9c>)
 8000992:	4013      	ands	r3, r2
 8000994:	600b      	str	r3, [r1, #0]

  /*!< Reset LSI1 and LSI2 bits */
  RCC->CSR &= (uint32_t)0xFFFFFFFAU;
 8000996:	f04f 43b0 	mov.w	r3, #1476395008	@ 0x58000000
 800099a:	f8d3 3094 	ldr.w	r3, [r3, #148]	@ 0x94
 800099e:	f04f 42b0 	mov.w	r2, #1476395008	@ 0x58000000
 80009a2:	f023 0305 	bic.w	r3, r3, #5
 80009a6:	f8c2 3094 	str.w	r3, [r2, #148]	@ 0x94

  /*!< Reset HSI48ON  bit */
  RCC->CRRCR &= (uint32_t)0xFFFFFFFEU;
 80009aa:	f04f 43b0 	mov.w	r3, #1476395008	@ 0x58000000
 80009ae:	f8d3 3098 	ldr.w	r3, [r3, #152]	@ 0x98
 80009b2:	f04f 42b0 	mov.w	r2, #1476395008	@ 0x58000000
 80009b6:	f023 0301 	bic.w	r3, r3, #1
 80009ba:	f8c2 3098 	str.w	r3, [r2, #152]	@ 0x98

  /* Reset PLLCFGR register */
  RCC->PLLCFGR = 0x22041000U;
 80009be:	f04f 43b0 	mov.w	r3, #1476395008	@ 0x58000000
 80009c2:	4a0d      	ldr	r2, [pc, #52]	@ (80009f8 <SystemInit+0xa0>)
 80009c4:	60da      	str	r2, [r3, #12]

#if defined(STM32WB55xx) || defined(STM32WB5Mxx)
  /* Reset PLLSAI1CFGR register */
  RCC->PLLSAI1CFGR = 0x22041000U;
 80009c6:	f04f 43b0 	mov.w	r3, #1476395008	@ 0x58000000
 80009ca:	4a0b      	ldr	r2, [pc, #44]	@ (80009f8 <SystemInit+0xa0>)
 80009cc:	611a      	str	r2, [r3, #16]
#endif /* STM32WB55xx || STM32WB5Mxx */

  /* Reset HSEBYP bit */
  RCC->CR &= 0xFFFBFFFFU;
 80009ce:	f04f 43b0 	mov.w	r3, #1476395008	@ 0x58000000
 80009d2:	681b      	ldr	r3, [r3, #0]
 80009d4:	f04f 42b0 	mov.w	r2, #1476395008	@ 0x58000000
 80009d8:	f423 2380 	bic.w	r3, r3, #262144	@ 0x40000
 80009dc:	6013      	str	r3, [r2, #0]

  /* Disable all interrupts */
  RCC->CIER = 0x00000000;
 80009de:	f04f 43b0 	mov.w	r3, #1476395008	@ 0x58000000
 80009e2:	2200      	movs	r2, #0
 80009e4:	619a      	str	r2, [r3, #24]
}
 80009e6:	bf00      	nop
 80009e8:	46bd      	mov	sp, r7
 80009ea:	f85d 7b04 	ldr.w	r7, [sp], #4
 80009ee:	4770      	bx	lr
 80009f0:	e000ed00 	.word	0xe000ed00
 80009f4:	faf6fefb 	.word	0xfaf6fefb
 80009f8:	22041000 	.word	0x22041000

080009fc <__NVIC_GetPriorityGrouping>:
{
 80009fc:	b480      	push	{r7}
 80009fe:	af00      	add	r7, sp, #0
  return ((uint32_t)((SCB->AIRCR & SCB_AIRCR_PRIGROUP_Msk) >> SCB_AIRCR_PRIGROUP_Pos));
 8000a00:	4b04      	ldr	r3, [pc, #16]	@ (8000a14 <__NVIC_GetPriorityGrouping+0x18>)
 8000a02:	68db      	ldr	r3, [r3, #12]
 8000a04:	0a1b      	lsrs	r3, r3, #8
 8000a06:	f003 0307 	and.w	r3, r3, #7
}
 8000a0a:	4618      	mov	r0, r3
 8000a0c:	46bd      	mov	sp, r7
 8000a0e:	f85d 7b04 	ldr.w	r7, [sp], #4
 8000a12:	4770      	bx	lr
 8000a14:	e000ed00 	.word	0xe000ed00

08000a18 <__NVIC_EnableIRQ>:
{
 8000a18:	b480      	push	{r7}
 8000a1a:	b083      	sub	sp, #12
 8000a1c:	af00      	add	r7, sp, #0
 8000a1e:	4603      	mov	r3, r0
 8000a20:	71fb      	strb	r3, [r7, #7]
  if ((int32_t)(IRQn) >= 0)
 8000a22:	f997 3007 	ldrsb.w	r3, [r7, #7]
 8000a26:	2b00      	cmp	r3, #0
 8000a28:	db0b      	blt.n	8000a42 <__NVIC_EnableIRQ+0x2a>
    NVIC->ISER[(((uint32_t)IRQn) >> 5UL)] = (uint32_t)(1UL << (((uint32_t)IRQn) & 0x1FUL));
 8000a2a:	79fb      	ldrb	r3, [r7, #7]
 8000a2c:	f003 021f 	and.w	r2, r3, #31
 8000a30:	4907      	ldr	r1, [pc, #28]	@ (8000a50 <__NVIC_EnableIRQ+0x38>)
 8000a32:	f997 3007 	ldrsb.w	r3, [r7, #7]
 8000a36:	095b      	lsrs	r3, r3, #5
 8000a38:	2001      	movs	r0, #1
 8000a3a:	fa00 f202 	lsl.w	r2, r0, r2
 8000a3e:	f841 2023 	str.w	r2, [r1, r3, lsl #2]
}
 8000a42:	bf00      	nop
 8000a44:	370c      	adds	r7, #12
 8000a46:	46bd      	mov	sp, r7
 8000a48:	f85d 7b04 	ldr.w	r7, [sp], #4
 8000a4c:	4770      	bx	lr
 8000a4e:	bf00      	nop
 8000a50:	e000e100 	.word	0xe000e100

08000a54 <__NVIC_SetPriority>:
{
 8000a54:	b480      	push	{r7}
 8000a56:	b083      	sub	sp, #12
 8000a58:	af00      	add	r7, sp, #0
 8000a5a:	4603      	mov	r3, r0
 8000a5c:	6039      	str	r1, [r7, #0]
 8000a5e:	71fb      	strb	r3, [r7, #7]
  if ((int32_t)(IRQn) >= 0)
 8000a60:	f997 3007 	ldrsb.w	r3, [r7, #7]
 8000a64:	2b00      	cmp	r3, #0
 8000a66:	db0a      	blt.n	8000a7e <__NVIC_SetPriority+0x2a>
    NVIC->IP[((uint32_t)IRQn)]               = (uint8_t)((priority << (8U - __NVIC_PRIO_BITS)) & (uint32_t)0xFFUL);
 8000a68:	683b      	ldr	r3, [r7, #0]
 8000a6a:	b2da      	uxtb	r2, r3
 8000a6c:	490c      	ldr	r1, [pc, #48]	@ (8000aa0 <__NVIC_SetPriority+0x4c>)
 8000a6e:	f997 3007 	ldrsb.w	r3, [r7, #7]
 8000a72:	0112      	lsls	r2, r2, #4
 8000a74:	b2d2      	uxtb	r2, r2
 8000a76:	440b      	add	r3, r1
 8000a78:	f883 2300 	strb.w	r2, [r3, #768]	@ 0x300
}
 8000a7c:	e00a      	b.n	8000a94 <__NVIC_SetPriority+0x40>
    SCB->SHP[(((uint32_t)IRQn) & 0xFUL)-4UL] = (uint8_t)((priority << (8U - __NVIC_PRIO_BITS)) & (uint32_t)0xFFUL);
 8000a7e:	683b      	ldr	r3, [r7, #0]
 8000a80:	b2da      	uxtb	r2, r3
 8000a82:	4908      	ldr	r1, [pc, #32]	@ (8000aa4 <__NVIC_SetPriority+0x50>)
 8000a84:	79fb      	ldrb	r3, [r7, #7]
 8000a86:	f003 030f 	and.w	r3, r3, #15
 8000a8a:	3b04      	subs	r3, #4
 8000a8c:	0112      	lsls	r2, r2, #4
 8000a8e:	b2d2      	uxtb	r2, r2
 8000a90:	440b      	add	r3, r1
 8000a92:	761a      	strb	r2, [r3, #24]
}
 8000a94:	bf00      	nop
 8000a96:	370c      	adds	r7, #12
 8000a98:	46bd      	mov	sp, r7
 8000a9a:	f85d 7b04 	ldr.w	r7, [sp], #4
 8000a9e:	4770      	bx	lr
 8000aa0:	e000e100 	.word	0xe000e100
 8000aa4:	e000ed00 	.word	0xe000ed00

08000aa8 <NVIC_EncodePriority>:
{
 8000aa8:	b480      	push	{r7}
 8000aaa:	b089      	sub	sp, #36	@ 0x24
 8000aac:	af00      	add	r7, sp, #0
 8000aae:	60f8      	str	r0, [r7, #12]
 8000ab0:	60b9      	str	r1, [r7, #8]
 8000ab2:	607a      	str	r2, [r7, #4]
  uint32_t PriorityGroupTmp = (PriorityGroup & (uint32_t)0x07UL);   /* only values 0..7 are used          */
 8000ab4:	68fb      	ldr	r3, [r7, #12]
 8000ab6:	f003 0307 	and.w	r3, r3, #7
 8000aba:	61fb      	str	r3, [r7, #28]
  PreemptPriorityBits = ((7UL - PriorityGroupTmp) > (uint32_t)(__NVIC_PRIO_BITS)) ? (uint32_t)(__NVIC_PRIO_BITS) : (uint32_t)(7UL - PriorityGroupTmp);
 8000abc:	69fb      	ldr	r3, [r7, #28]
 8000abe:	f1c3 0307 	rsb	r3, r3, #7
 8000ac2:	2b04      	cmp	r3, #4
 8000ac4:	bf28      	it	cs
 8000ac6:	2304      	movcs	r3, #4
 8000ac8:	61bb      	str	r3, [r7, #24]
  SubPriorityBits     = ((PriorityGroupTmp + (uint32_t)(__NVIC_PRIO_BITS)) < (uint32_t)7UL) ? (uint32_t)0UL : (uint32_t)((PriorityGroupTmp - 7UL) + (uint32_t)(__NVIC_PRIO_BITS));
 8000aca:	69fb      	ldr	r3, [r7, #28]
 8000acc:	3304      	adds	r3, #4
 8000ace:	2b06      	cmp	r3, #6
 8000ad0:	d902      	bls.n	8000ad8 <NVIC_EncodePriority+0x30>
 8000ad2:	69fb      	ldr	r3, [r7, #28]
 8000ad4:	3b03      	subs	r3, #3
 8000ad6:	e000      	b.n	8000ada <NVIC_EncodePriority+0x32>
 8000ad8:	2300      	movs	r3, #0
 8000ada:	617b      	str	r3, [r7, #20]
           ((PreemptPriority & (uint32_t)((1UL << (PreemptPriorityBits)) - 1UL)) << SubPriorityBits) |
 8000adc:	f04f 32ff 	mov.w	r2, #4294967295
 8000ae0:	69bb      	ldr	r3, [r7, #24]
 8000ae2:	fa02 f303 	lsl.w	r3, r2, r3
 8000ae6:	43da      	mvns	r2, r3
 8000ae8:	68bb      	ldr	r3, [r7, #8]
 8000aea:	401a      	ands	r2, r3
 8000aec:	697b      	ldr	r3, [r7, #20]
 8000aee:	409a      	lsls	r2, r3
           ((SubPriority     & (uint32_t)((1UL << (SubPriorityBits    )) - 1UL)))
 8000af0:	f04f 31ff 	mov.w	r1, #4294967295
 8000af4:	697b      	ldr	r3, [r7, #20]
 8000af6:	fa01 f303 	lsl.w	r3, r1, r3
 8000afa:	43d9      	mvns	r1, r3
 8000afc:	687b      	ldr	r3, [r7, #4]
 8000afe:	400b      	ands	r3, r1
           ((PreemptPriority & (uint32_t)((1UL << (PreemptPriorityBits)) - 1UL)) << SubPriorityBits) |
 8000b00:	4313      	orrs	r3, r2
}
 8000b02:	4618      	mov	r0, r3
 8000b04:	3724      	adds	r7, #36	@ 0x24
 8000b06:	46bd      	mov	sp, r7
 8000b08:	f85d 7b04 	ldr.w	r7, [sp], #4
 8000b0c:	4770      	bx	lr

08000b0e <LL_RCC_SetUSARTClockSource>:
{
 8000b0e:	b480      	push	{r7}
 8000b10:	b083      	sub	sp, #12
 8000b12:	af00      	add	r7, sp, #0
 8000b14:	6078      	str	r0, [r7, #4]
  MODIFY_REG(RCC->CCIPR, RCC_CCIPR_USART1SEL, USARTxSource);
 8000b16:	f04f 43b0 	mov.w	r3, #1476395008	@ 0x58000000
 8000b1a:	f8d3 3088 	ldr.w	r3, [r3, #136]	@ 0x88
 8000b1e:	f023 0203 	bic.w	r2, r3, #3
 8000b22:	f04f 41b0 	mov.w	r1, #1476395008	@ 0x58000000
 8000b26:	687b      	ldr	r3, [r7, #4]
 8000b28:	4313      	orrs	r3, r2
 8000b2a:	f8c1 3088 	str.w	r3, [r1, #136]	@ 0x88
}
 8000b2e:	bf00      	nop
 8000b30:	370c      	adds	r7, #12
 8000b32:	46bd      	mov	sp, r7
 8000b34:	f85d 7b04 	ldr.w	r7, [sp], #4
 8000b38:	4770      	bx	lr

08000b3a <LL_AHB2_GRP1_EnableClock>:
{
 8000b3a:	b480      	push	{r7}
 8000b3c:	b085      	sub	sp, #20
 8000b3e:	af00      	add	r7, sp, #0
 8000b40:	6078      	str	r0, [r7, #4]
  SET_BIT(RCC->AHB2ENR, Periphs);
 8000b42:	f04f 43b0 	mov.w	r3, #1476395008	@ 0x58000000
 8000b46:	6cda      	ldr	r2, [r3, #76]	@ 0x4c
 8000b48:	f04f 41b0 	mov.w	r1, #1476395008	@ 0x58000000
 8000b4c:	687b      	ldr	r3, [r7, #4]
 8000b4e:	4313      	orrs	r3, r2
 8000b50:	64cb      	str	r3, [r1, #76]	@ 0x4c
  tmpreg = READ_BIT(RCC->AHB2ENR, Periphs);
 8000b52:	f04f 43b0 	mov.w	r3, #1476395008	@ 0x58000000
 8000b56:	6cda      	ldr	r2, [r3, #76]	@ 0x4c
 8000b58:	687b      	ldr	r3, [r7, #4]
 8000b5a:	4013      	ands	r3, r2
 8000b5c:	60fb      	str	r3, [r7, #12]
  (void)tmpreg;
 8000b5e:	68fb      	ldr	r3, [r7, #12]
}
 8000b60:	bf00      	nop
 8000b62:	3714      	adds	r7, #20
 8000b64:	46bd      	mov	sp, r7
 8000b66:	f85d 7b04 	ldr.w	r7, [sp], #4
 8000b6a:	4770      	bx	lr

08000b6c <LL_APB2_GRP1_EnableClock>:
  *         @arg @ref LL_APB2_GRP1_PERIPH_SAI1 (*)
  * @note  (*) Not supported by all the devices
  * @retval None
  */
__STATIC_INLINE void LL_APB2_GRP1_EnableClock(uint32_t Periphs)
{
 8000b6c:	b480      	push	{r7}
 8000b6e:	b085      	sub	sp, #20
 8000b70:	af00      	add	r7, sp, #0
 8000b72:	6078      	str	r0, [r7, #4]
  __IO uint32_t tmpreg;
  SET_BIT(RCC->APB2ENR, Periphs);
 8000b74:	f04f 43b0 	mov.w	r3, #1476395008	@ 0x58000000
 8000b78:	6e1a      	ldr	r2, [r3, #96]	@ 0x60
 8000b7a:	f04f 41b0 	mov.w	r1, #1476395008	@ 0x58000000
 8000b7e:	687b      	ldr	r3, [r7, #4]
 8000b80:	4313      	orrs	r3, r2
 8000b82:	660b      	str	r3, [r1, #96]	@ 0x60
  /* Delay after an RCC peripheral clock enabling */
  tmpreg = READ_BIT(RCC->APB2ENR, Periphs);
 8000b84:	f04f 43b0 	mov.w	r3, #1476395008	@ 0x58000000
 8000b88:	6e1a      	ldr	r2, [r3, #96]	@ 0x60
 8000b8a:	687b      	ldr	r3, [r7, #4]
 8000b8c:	4013      	ands	r3, r2
 8000b8e:	60fb      	str	r3, [r7, #12]
  (void)tmpreg;
 8000b90:	68fb      	ldr	r3, [r7, #12]
}
 8000b92:	bf00      	nop
 8000b94:	3714      	adds	r7, #20
 8000b96:	46bd      	mov	sp, r7
 8000b98:	f85d 7b04 	ldr.w	r7, [sp], #4
 8000b9c:	4770      	bx	lr

08000b9e <LL_USART_Enable>:
{
 8000b9e:	b480      	push	{r7}
 8000ba0:	b083      	sub	sp, #12
 8000ba2:	af00      	add	r7, sp, #0
 8000ba4:	6078      	str	r0, [r7, #4]
  SET_BIT(USARTx->CR1, USART_CR1_UE);
 8000ba6:	687b      	ldr	r3, [r7, #4]
 8000ba8:	681b      	ldr	r3, [r3, #0]
 8000baa:	f043 0201 	orr.w	r2, r3, #1
 8000bae:	687b      	ldr	r3, [r7, #4]
 8000bb0:	601a      	str	r2, [r3, #0]
}
 8000bb2:	bf00      	nop
 8000bb4:	370c      	adds	r7, #12
 8000bb6:	46bd      	mov	sp, r7
 8000bb8:	f85d 7b04 	ldr.w	r7, [sp], #4
 8000bbc:	4770      	bx	lr

08000bbe <LL_USART_DisableFIFO>:
{
 8000bbe:	b480      	push	{r7}
 8000bc0:	b083      	sub	sp, #12
 8000bc2:	af00      	add	r7, sp, #0
 8000bc4:	6078      	str	r0, [r7, #4]
  CLEAR_BIT(USARTx->CR1, USART_CR1_FIFOEN);
 8000bc6:	687b      	ldr	r3, [r7, #4]
 8000bc8:	681b      	ldr	r3, [r3, #0]
 8000bca:	f023 5200 	bic.w	r2, r3, #536870912	@ 0x20000000
 8000bce:	687b      	ldr	r3, [r7, #4]
 8000bd0:	601a      	str	r2, [r3, #0]
}
 8000bd2:	bf00      	nop
 8000bd4:	370c      	adds	r7, #12
 8000bd6:	46bd      	mov	sp, r7
 8000bd8:	f85d 7b04 	ldr.w	r7, [sp], #4
 8000bdc:	4770      	bx	lr

08000bde <LL_USART_SetTXFIFOThreshold>:
{
 8000bde:	b480      	push	{r7}
 8000be0:	b089      	sub	sp, #36	@ 0x24
 8000be2:	af00      	add	r7, sp, #0
 8000be4:	6078      	str	r0, [r7, #4]
 8000be6:	6039      	str	r1, [r7, #0]
  ATOMIC_MODIFY_REG(USARTx->CR3, USART_CR3_TXFTCFG, Threshold << USART_CR3_TXFTCFG_Pos);
 8000be8:	687b      	ldr	r3, [r7, #4]
 8000bea:	3308      	adds	r3, #8
 8000bec:	60fb      	str	r3, [r7, #12]
   __ASM volatile ("ldrex %0, %1" : "=r" (result) : "Q" (*addr) );
 8000bee:	68fb      	ldr	r3, [r7, #12]
 8000bf0:	e853 3f00 	ldrex	r3, [r3]
 8000bf4:	60bb      	str	r3, [r7, #8]
   return(result);
 8000bf6:	68bb      	ldr	r3, [r7, #8]
 8000bf8:	f023 4260 	bic.w	r2, r3, #3758096384	@ 0xe0000000
 8000bfc:	683b      	ldr	r3, [r7, #0]
 8000bfe:	075b      	lsls	r3, r3, #29
 8000c00:	4313      	orrs	r3, r2
 8000c02:	61fb      	str	r3, [r7, #28]
 8000c04:	687b      	ldr	r3, [r7, #4]
 8000c06:	3308      	adds	r3, #8
 8000c08:	69fa      	ldr	r2, [r7, #28]
 8000c0a:	61ba      	str	r2, [r7, #24]
 8000c0c:	617b      	str	r3, [r7, #20]
   __ASM volatile ("strex %0, %2, %1" : "=&r" (result), "=Q" (*addr) : "r" (value) );
 8000c0e:	6979      	ldr	r1, [r7, #20]
 8000c10:	69ba      	ldr	r2, [r7, #24]
 8000c12:	e841 2300 	strex	r3, r2, [r1]
 8000c16:	613b      	str	r3, [r7, #16]
   return(result);
 8000c18:	693b      	ldr	r3, [r7, #16]
 8000c1a:	2b00      	cmp	r3, #0
 8000c1c:	d1e4      	bne.n	8000be8 <LL_USART_SetTXFIFOThreshold+0xa>
}
 8000c1e:	bf00      	nop
 8000c20:	bf00      	nop
 8000c22:	3724      	adds	r7, #36	@ 0x24
 8000c24:	46bd      	mov	sp, r7
 8000c26:	f85d 7b04 	ldr.w	r7, [sp], #4
 8000c2a:	4770      	bx	lr

08000c2c <LL_USART_SetRXFIFOThreshold>:
{
 8000c2c:	b480      	push	{r7}
 8000c2e:	b089      	sub	sp, #36	@ 0x24
 8000c30:	af00      	add	r7, sp, #0
 8000c32:	6078      	str	r0, [r7, #4]
 8000c34:	6039      	str	r1, [r7, #0]
  ATOMIC_MODIFY_REG(USARTx->CR3, USART_CR3_RXFTCFG, Threshold << USART_CR3_RXFTCFG_Pos);
 8000c36:	687b      	ldr	r3, [r7, #4]
 8000c38:	3308      	adds	r3, #8
 8000c3a:	60fb      	str	r3, [r7, #12]
   __ASM volatile ("ldrex %0, %1" : "=r" (result) : "Q" (*addr) );
 8000c3c:	68fb      	ldr	r3, [r7, #12]
 8000c3e:	e853 3f00 	ldrex	r3, [r3]
 8000c42:	60bb      	str	r3, [r7, #8]
   return(result);
 8000c44:	68bb      	ldr	r3, [r7, #8]
 8000c46:	f023 6260 	bic.w	r2, r3, #234881024	@ 0xe000000
 8000c4a:	683b      	ldr	r3, [r7, #0]
 8000c4c:	065b      	lsls	r3, r3, #25
 8000c4e:	4313      	orrs	r3, r2
 8000c50:	61fb      	str	r3, [r7, #28]
 8000c52:	687b      	ldr	r3, [r7, #4]
 8000c54:	3308      	adds	r3, #8
 8000c56:	69fa      	ldr	r2, [r7, #28]
 8000c58:	61ba      	str	r2, [r7, #24]
 8000c5a:	617b      	str	r3, [r7, #20]
   __ASM volatile ("strex %0, %2, %1" : "=&r" (result), "=Q" (*addr) : "r" (value) );
 8000c5c:	6979      	ldr	r1, [r7, #20]
 8000c5e:	69ba      	ldr	r2, [r7, #24]
 8000c60:	e841 2300 	strex	r3, r2, [r1]
 8000c64:	613b      	str	r3, [r7, #16]
   return(result);
 8000c66:	693b      	ldr	r3, [r7, #16]
 8000c68:	2b00      	cmp	r3, #0
 8000c6a:	d1e4      	bne.n	8000c36 <LL_USART_SetRXFIFOThreshold+0xa>
}
 8000c6c:	bf00      	nop
 8000c6e:	bf00      	nop
 8000c70:	3724      	adds	r7, #36	@ 0x24
 8000c72:	46bd      	mov	sp, r7
 8000c74:	f85d 7b04 	ldr.w	r7, [sp], #4
 8000c78:	4770      	bx	lr

08000c7a <LL_USART_ConfigAsyncMode>:
{
 8000c7a:	b480      	push	{r7}
 8000c7c:	b083      	sub	sp, #12
 8000c7e:	af00      	add	r7, sp, #0
 8000c80:	6078      	str	r0, [r7, #4]
  CLEAR_BIT(USARTx->CR2, (USART_CR2_LINEN | USART_CR2_CLKEN));
 8000c82:	687b      	ldr	r3, [r7, #4]
 8000c84:	685b      	ldr	r3, [r3, #4]
 8000c86:	f423 4290 	bic.w	r2, r3, #18432	@ 0x4800
 8000c8a:	687b      	ldr	r3, [r7, #4]
 8000c8c:	605a      	str	r2, [r3, #4]
  CLEAR_BIT(USARTx->CR3, (USART_CR3_SCEN | USART_CR3_IREN | USART_CR3_HDSEL));
 8000c8e:	687b      	ldr	r3, [r7, #4]
 8000c90:	689b      	ldr	r3, [r3, #8]
 8000c92:	f023 022a 	bic.w	r2, r3, #42	@ 0x2a
 8000c96:	687b      	ldr	r3, [r7, #4]
 8000c98:	609a      	str	r2, [r3, #8]
}
 8000c9a:	bf00      	nop
 8000c9c:	370c      	adds	r7, #12
 8000c9e:	46bd      	mov	sp, r7
 8000ca0:	f85d 7b04 	ldr.w	r7, [sp], #4
 8000ca4:	4770      	bx	lr

08000ca6 <LL_USART_IsActiveFlag_TEACK>:
{
 8000ca6:	b480      	push	{r7}
 8000ca8:	b083      	sub	sp, #12
 8000caa:	af00      	add	r7, sp, #0
 8000cac:	6078      	str	r0, [r7, #4]
  return ((READ_BIT(USARTx->ISR, USART_ISR_TEACK) == (USART_ISR_TEACK)) ? 1UL : 0UL);
 8000cae:	687b      	ldr	r3, [r7, #4]
 8000cb0:	69db      	ldr	r3, [r3, #28]
 8000cb2:	f403 1300 	and.w	r3, r3, #2097152	@ 0x200000
 8000cb6:	f5b3 1f00 	cmp.w	r3, #2097152	@ 0x200000
 8000cba:	d101      	bne.n	8000cc0 <LL_USART_IsActiveFlag_TEACK+0x1a>
 8000cbc:	2301      	movs	r3, #1
 8000cbe:	e000      	b.n	8000cc2 <LL_USART_IsActiveFlag_TEACK+0x1c>
 8000cc0:	2300      	movs	r3, #0
}
 8000cc2:	4618      	mov	r0, r3
 8000cc4:	370c      	adds	r7, #12
 8000cc6:	46bd      	mov	sp, r7
 8000cc8:	f85d 7b04 	ldr.w	r7, [sp], #4
 8000ccc:	4770      	bx	lr

08000cce <LL_USART_IsActiveFlag_REACK>:
{
 8000cce:	b480      	push	{r7}
 8000cd0:	b083      	sub	sp, #12
 8000cd2:	af00      	add	r7, sp, #0
 8000cd4:	6078      	str	r0, [r7, #4]
  return ((READ_BIT(USARTx->ISR, USART_ISR_REACK) == (USART_ISR_REACK)) ? 1UL : 0UL);
 8000cd6:	687b      	ldr	r3, [r7, #4]
 8000cd8:	69db      	ldr	r3, [r3, #28]
 8000cda:	f403 0380 	and.w	r3, r3, #4194304	@ 0x400000
 8000cde:	f5b3 0f80 	cmp.w	r3, #4194304	@ 0x400000
 8000ce2:	d101      	bne.n	8000ce8 <LL_USART_IsActiveFlag_REACK+0x1a>
 8000ce4:	2301      	movs	r3, #1
 8000ce6:	e000      	b.n	8000cea <LL_USART_IsActiveFlag_REACK+0x1c>
 8000ce8:	2300      	movs	r3, #0
}
 8000cea:	4618      	mov	r0, r3
 8000cec:	370c      	adds	r7, #12
 8000cee:	46bd      	mov	sp, r7
 8000cf0:	f85d 7b04 	ldr.w	r7, [sp], #4
 8000cf4:	4770      	bx	lr
	...

08000cf8 <MX_USART1_UART_Init>:
/* USER CODE END 0 */

/* USART1 init function */

void MX_USART1_UART_Init(void)
{
 8000cf8:	b580      	push	{r7, lr}
 8000cfa:	b08e      	sub	sp, #56	@ 0x38
 8000cfc:	af00      	add	r7, sp, #0

  /* USER CODE BEGIN USART1_Init 0 */

  /* USER CODE END USART1_Init 0 */

  LL_USART_InitTypeDef USART_InitStruct = {0};
 8000cfe:	f107 0318 	add.w	r3, r7, #24
 8000d02:	2220      	movs	r2, #32
 8000d04:	2100      	movs	r1, #0
 8000d06:	4618      	mov	r0, r3
 8000d08:	f000 fefc 	bl	8001b04 <memset>

  LL_GPIO_InitTypeDef GPIO_InitStruct = {0};
 8000d0c:	463b      	mov	r3, r7
 8000d0e:	2200      	movs	r2, #0
 8000d10:	601a      	str	r2, [r3, #0]
 8000d12:	605a      	str	r2, [r3, #4]
 8000d14:	609a      	str	r2, [r3, #8]
 8000d16:	60da      	str	r2, [r3, #12]
 8000d18:	611a      	str	r2, [r3, #16]
 8000d1a:	615a      	str	r2, [r3, #20]

  LL_RCC_SetUSARTClockSource(LL_RCC_USART1_CLKSOURCE_PCLK2);
 8000d1c:	2000      	movs	r0, #0
 8000d1e:	f7ff fef6 	bl	8000b0e <LL_RCC_SetUSARTClockSource>

  /* Peripheral clock enable */
  LL_APB2_GRP1_EnableClock(LL_APB2_GRP1_PERIPH_USART1);
 8000d22:	f44f 4080 	mov.w	r0, #16384	@ 0x4000
 8000d26:	f7ff ff21 	bl	8000b6c <LL_APB2_GRP1_EnableClock>

  LL_AHB2_GRP1_EnableClock(LL_AHB2_GRP1_PERIPH_GPIOB);
 8000d2a:	2002      	movs	r0, #2
 8000d2c:	f7ff ff05 	bl	8000b3a <LL_AHB2_GRP1_EnableClock>
  /**USART1 GPIO Configuration
  PB6   ------> USART1_TX
  PB7   ------> USART1_RX
  */
  GPIO_InitStruct.Pin = LL_GPIO_PIN_6|LL_GPIO_PIN_7;
 8000d30:	23c0      	movs	r3, #192	@ 0xc0
 8000d32:	603b      	str	r3, [r7, #0]
  GPIO_InitStruct.Mode = LL_GPIO_MODE_ALTERNATE;
 8000d34:	2302      	movs	r3, #2
 8000d36:	607b      	str	r3, [r7, #4]
  GPIO_InitStruct.Speed = LL_GPIO_SPEED_FREQ_LOW;
 8000d38:	2300      	movs	r3, #0
 8000d3a:	60bb      	str	r3, [r7, #8]
  GPIO_InitStruct.OutputType = LL_GPIO_OUTPUT_PUSHPULL;
 8000d3c:	2300      	movs	r3, #0
 8000d3e:	60fb      	str	r3, [r7, #12]
  GPIO_InitStruct.Pull = LL_GPIO_PULL_NO;
 8000d40:	2300      	movs	r3, #0
 8000d42:	613b      	str	r3, [r7, #16]
  GPIO_InitStruct.Alternate = LL_GPIO_AF_7;
 8000d44:	2307      	movs	r3, #7
 8000d46:	617b      	str	r3, [r7, #20]
  LL_GPIO_Init(GPIOB, &GPIO_InitStruct);
 8000d48:	463b      	mov	r3, r7
 8000d4a:	4619      	mov	r1, r3
 8000d4c:	4826      	ldr	r0, [pc, #152]	@ (8000de8 <MX_USART1_UART_Init+0xf0>)
 8000d4e:	f000 f9d3 	bl	80010f8 <LL_GPIO_Init>

  /* USART1 interrupt Init */
  NVIC_SetPriority(USART1_IRQn, NVIC_EncodePriority(NVIC_GetPriorityGrouping(),0, 0));
 8000d52:	f7ff fe53 	bl	80009fc <__NVIC_GetPriorityGrouping>
 8000d56:	4603      	mov	r3, r0
 8000d58:	2200      	movs	r2, #0
 8000d5a:	2100      	movs	r1, #0
 8000d5c:	4618      	mov	r0, r3
 8000d5e:	f7ff fea3 	bl	8000aa8 <NVIC_EncodePriority>
 8000d62:	4603      	mov	r3, r0
 8000d64:	4619      	mov	r1, r3
 8000d66:	2024      	movs	r0, #36	@ 0x24
 8000d68:	f7ff fe74 	bl	8000a54 <__NVIC_SetPriority>
  NVIC_EnableIRQ(USART1_IRQn);
 8000d6c:	2024      	movs	r0, #36	@ 0x24
 8000d6e:	f7ff fe53 	bl	8000a18 <__NVIC_EnableIRQ>

  /* USER CODE BEGIN USART1_Init 1 */

  /* USER CODE END USART1_Init 1 */
  USART_InitStruct.PrescalerValue = LL_USART_PRESCALER_DIV1;
 8000d72:	2300      	movs	r3, #0
 8000d74:	61bb      	str	r3, [r7, #24]
  USART_InitStruct.BaudRate = 115200;
 8000d76:	f44f 33e1 	mov.w	r3, #115200	@ 0x1c200
 8000d7a:	61fb      	str	r3, [r7, #28]
  USART_InitStruct.DataWidth = LL_USART_DATAWIDTH_8B;
 8000d7c:	2300      	movs	r3, #0
 8000d7e:	623b      	str	r3, [r7, #32]
  USART_InitStruct.StopBits = LL_USART_STOPBITS_1;
 8000d80:	2300      	movs	r3, #0
 8000d82:	627b      	str	r3, [r7, #36]	@ 0x24
  USART_InitStruct.Parity = LL_USART_PARITY_NONE;
 8000d84:	2300      	movs	r3, #0
 8000d86:	62bb      	str	r3, [r7, #40]	@ 0x28
  USART_InitStruct.TransferDirection = LL_USART_DIRECTION_TX_RX;
 8000d88:	230c      	movs	r3, #12
 8000d8a:	62fb      	str	r3, [r7, #44]	@ 0x2c
  USART_InitStruct.HardwareFlowControl = LL_USART_HWCONTROL_NONE;
 8000d8c:	2300      	movs	r3, #0
 8000d8e:	633b      	str	r3, [r7, #48]	@ 0x30
  USART_InitStruct.OverSampling = LL_USART_OVERSAMPLING_16;
 8000d90:	2300      	movs	r3, #0
 8000d92:	637b      	str	r3, [r7, #52]	@ 0x34
  LL_USART_Init(USART1, &USART_InitStruct);
 8000d94:	f107 0318 	add.w	r3, r7, #24
 8000d98:	4619      	mov	r1, r3
 8000d9a:	4814      	ldr	r0, [pc, #80]	@ (8000dec <MX_USART1_UART_Init+0xf4>)
 8000d9c:	f000 fd5c 	bl	8001858 <LL_USART_Init>
  LL_USART_SetTXFIFOThreshold(USART1, LL_USART_FIFOTHRESHOLD_1_8);
 8000da0:	2100      	movs	r1, #0
 8000da2:	4812      	ldr	r0, [pc, #72]	@ (8000dec <MX_USART1_UART_Init+0xf4>)
 8000da4:	f7ff ff1b 	bl	8000bde <LL_USART_SetTXFIFOThreshold>
  LL_USART_SetRXFIFOThreshold(USART1, LL_USART_FIFOTHRESHOLD_1_8);
 8000da8:	2100      	movs	r1, #0
 8000daa:	4810      	ldr	r0, [pc, #64]	@ (8000dec <MX_USART1_UART_Init+0xf4>)
 8000dac:	f7ff ff3e 	bl	8000c2c <LL_USART_SetRXFIFOThreshold>
  LL_USART_DisableFIFO(USART1);
 8000db0:	480e      	ldr	r0, [pc, #56]	@ (8000dec <MX_USART1_UART_Init+0xf4>)
 8000db2:	f7ff ff04 	bl	8000bbe <LL_USART_DisableFIFO>
  LL_USART_ConfigAsyncMode(USART1);
 8000db6:	480d      	ldr	r0, [pc, #52]	@ (8000dec <MX_USART1_UART_Init+0xf4>)
 8000db8:	f7ff ff5f 	bl	8000c7a <LL_USART_ConfigAsyncMode>

  /* USER CODE BEGIN WKUPType USART1 */

  /* USER CODE END WKUPType USART1 */

  LL_USART_Enable(USART1);
 8000dbc:	480b      	ldr	r0, [pc, #44]	@ (8000dec <MX_USART1_UART_Init+0xf4>)
 8000dbe:	f7ff feee 	bl	8000b9e <LL_USART_Enable>

  /* Polling USART1 initialisation */
  while((!(LL_USART_IsActiveFlag_TEACK(USART1))) || (!(LL_USART_IsActiveFlag_REACK(USART1))))
 8000dc2:	bf00      	nop
 8000dc4:	4809      	ldr	r0, [pc, #36]	@ (8000dec <MX_USART1_UART_Init+0xf4>)
 8000dc6:	f7ff ff6e 	bl	8000ca6 <LL_USART_IsActiveFlag_TEACK>
 8000dca:	4603      	mov	r3, r0
 8000dcc:	2b00      	cmp	r3, #0
 8000dce:	d0f9      	beq.n	8000dc4 <MX_USART1_UART_Init+0xcc>
 8000dd0:	4806      	ldr	r0, [pc, #24]	@ (8000dec <MX_USART1_UART_Init+0xf4>)
 8000dd2:	f7ff ff7c 	bl	8000cce <LL_USART_IsActiveFlag_REACK>
 8000dd6:	4603      	mov	r3, r0
 8000dd8:	2b00      	cmp	r3, #0
 8000dda:	d0f3      	beq.n	8000dc4 <MX_USART1_UART_Init+0xcc>
  }
  /* USER CODE BEGIN USART1_Init 2 */

  /* USER CODE END USART1_Init 2 */

}
 8000ddc:	bf00      	nop
 8000dde:	bf00      	nop
 8000de0:	3738      	adds	r7, #56	@ 0x38
 8000de2:	46bd      	mov	sp, r7
 8000de4:	bd80      	pop	{r7, pc}
 8000de6:	bf00      	nop
 8000de8:	48000400 	.word	0x48000400
 8000dec:	40013800 	.word	0x40013800

08000df0 <CopyDataInit>:
  bl LoopCopyDataInit
.endm

.section  .text.data_initializers
CopyDataInit:
  ldr r4, [r2, r3]
 8000df0:	58d4      	ldr	r4, [r2, r3]
  str r4, [r0, r3]
 8000df2:	50c4      	str	r4, [r0, r3]
  adds r3, r3, #4
 8000df4:	3304      	adds	r3, #4

08000df6 <LoopCopyDataInit>:

LoopCopyDataInit:
  adds r4, r0, r3
 8000df6:	18c4      	adds	r4, r0, r3
  cmp r4, r1
 8000df8:	428c      	cmp	r4, r1
  bcc  CopyDataInit
 8000dfa:	d3f9      	bcc.n	8000df0 <CopyDataInit>
  bx lr
 8000dfc:	4770      	bx	lr

08000dfe <FillZerobss>:

FillZerobss:
  str  r3, [r0]
 8000dfe:	6003      	str	r3, [r0, #0]
  adds r0, r0, #4
 8000e00:	3004      	adds	r0, #4

08000e02 <LoopFillZerobss>:

LoopFillZerobss:
  cmp r0, r1
 8000e02:	4288      	cmp	r0, r1
  bcc FillZerobss
 8000e04:	d3fb      	bcc.n	8000dfe <FillZerobss>
  bx lr
 8000e06:	4770      	bx	lr

08000e08 <Reset_Handler>:

  .section .text.Reset_Handler
  .weak Reset_Handler
  .type Reset_Handler, %function
Reset_Handler:
  ldr   r0, =_estack
 8000e08:	480c      	ldr	r0, [pc, #48]	@ (8000e3c <LoopForever+0x2>)
  mov   sp, r0          /* set stack pointer */
 8000e0a:	4685      	mov	sp, r0
/* Call the clock system initialization function.*/
  bl  SystemInit
 8000e0c:	f7ff fda4 	bl	8000958 <SystemInit>

/* Copy the data segment initializers from flash to SRAM */
  INIT_DATA _sdata, _edata, _sidata
 8000e10:	480b      	ldr	r0, [pc, #44]	@ (8000e40 <LoopForever+0x6>)
 8000e12:	490c      	ldr	r1, [pc, #48]	@ (8000e44 <LoopForever+0xa>)
 8000e14:	4a0c      	ldr	r2, [pc, #48]	@ (8000e48 <LoopForever+0xe>)
 8000e16:	2300      	movs	r3, #0
 8000e18:	f7ff ffed 	bl	8000df6 <LoopCopyDataInit>
  INIT_DATA _sMB_MEM2, _eMB_MEM2, _siMB_MEM2
 8000e1c:	480b      	ldr	r0, [pc, #44]	@ (8000e4c <LoopForever+0x12>)
 8000e1e:	490c      	ldr	r1, [pc, #48]	@ (8000e50 <LoopForever+0x16>)
 8000e20:	4a0c      	ldr	r2, [pc, #48]	@ (8000e54 <LoopForever+0x1a>)
 8000e22:	2300      	movs	r3, #0
 8000e24:	f7ff ffe7 	bl	8000df6 <LoopCopyDataInit>

/* Zero fill the bss segments. */
  INIT_BSS _sbss, _ebss
 8000e28:	480b      	ldr	r0, [pc, #44]	@ (8000e58 <LoopForever+0x1e>)
 8000e2a:	490c      	ldr	r1, [pc, #48]	@ (8000e5c <LoopForever+0x22>)
 8000e2c:	2300      	movs	r3, #0
 8000e2e:	f7ff ffe8 	bl	8000e02 <LoopFillZerobss>

/* Call static constructors */
  bl __libc_init_array
 8000e32:	f000 fe6f 	bl	8001b14 <__libc_init_array>
/* Call the application s entry point.*/
  bl main
 8000e36:	f7ff fcd3 	bl	80007e0 <main>

08000e3a <LoopForever>:

LoopForever:
  b LoopForever
 8000e3a:	e7fe      	b.n	8000e3a <LoopForever>
  ldr   r0, =_estack
 8000e3c:	20030000 	.word	0x20030000
  INIT_DATA _sdata, _edata, _sidata
 8000e40:	20000008 	.word	0x20000008
 8000e44:	2000000c 	.word	0x2000000c
 8000e48:	08001cf8 	.word	0x08001cf8
  INIT_DATA _sMB_MEM2, _eMB_MEM2, _siMB_MEM2
 8000e4c:	20030000 	.word	0x20030000
 8000e50:	20030000 	.word	0x20030000
 8000e54:	08001cfc 	.word	0x08001cfc
  INIT_BSS _sbss, _ebss
 8000e58:	2000000c 	.word	0x2000000c
 8000e5c:	20000028 	.word	0x20000028

08000e60 <ADC1_IRQHandler>:
 * @retval None
*/
  .section .text.Default_Handler,"ax",%progbits
Default_Handler:
Infinite_Loop:
  b Infinite_Loop
 8000e60:	e7fe      	b.n	8000e60 <ADC1_IRQHandler>

08000e62 <LL_GPIO_SetPinMode>:
  *         @arg @ref LL_GPIO_MODE_ALTERNATE
  *         @arg @ref LL_GPIO_MODE_ANALOG
  * @retval None
  */
__STATIC_INLINE void LL_GPIO_SetPinMode(GPIO_TypeDef *GPIOx, uint32_t Pin, uint32_t Mode)
{
 8000e62:	b480      	push	{r7}
 8000e64:	b08b      	sub	sp, #44	@ 0x2c
 8000e66:	af00      	add	r7, sp, #0
 8000e68:	60f8      	str	r0, [r7, #12]
 8000e6a:	60b9      	str	r1, [r7, #8]
 8000e6c:	607a      	str	r2, [r7, #4]
  MODIFY_REG(GPIOx->MODER, (GPIO_MODER_MODE0 << (POSITION_VAL(Pin) * 2U)), (Mode << (POSITION_VAL(Pin) * 2U)));
 8000e6e:	68fb      	ldr	r3, [r7, #12]
 8000e70:	681a      	ldr	r2, [r3, #0]
 8000e72:	68bb      	ldr	r3, [r7, #8]
 8000e74:	617b      	str	r3, [r7, #20]
   __ASM volatile ("rbit %0, %1" : "=r" (result) : "r" (value) );
 8000e76:	697b      	ldr	r3, [r7, #20]
 8000e78:	fa93 f3a3 	rbit	r3, r3
 8000e7c:	613b      	str	r3, [r7, #16]
  return result;
 8000e7e:	693b      	ldr	r3, [r7, #16]
 8000e80:	61bb      	str	r3, [r7, #24]
  if (value == 0U)
 8000e82:	69bb      	ldr	r3, [r7, #24]
 8000e84:	2b00      	cmp	r3, #0
 8000e86:	d101      	bne.n	8000e8c <LL_GPIO_SetPinMode+0x2a>
    return 32U;
 8000e88:	2320      	movs	r3, #32
 8000e8a:	e003      	b.n	8000e94 <LL_GPIO_SetPinMode+0x32>
  return __builtin_clz(value);
 8000e8c:	69bb      	ldr	r3, [r7, #24]
 8000e8e:	fab3 f383 	clz	r3, r3
 8000e92:	b2db      	uxtb	r3, r3
 8000e94:	005b      	lsls	r3, r3, #1
 8000e96:	2103      	movs	r1, #3
 8000e98:	fa01 f303 	lsl.w	r3, r1, r3
 8000e9c:	43db      	mvns	r3, r3
 8000e9e:	401a      	ands	r2, r3
 8000ea0:	68bb      	ldr	r3, [r7, #8]
 8000ea2:	623b      	str	r3, [r7, #32]
   __ASM volatile ("rbit %0, %1" : "=r" (result) : "r" (value) );
 8000ea4:	6a3b      	ldr	r3, [r7, #32]
 8000ea6:	fa93 f3a3 	rbit	r3, r3
 8000eaa:	61fb      	str	r3, [r7, #28]
  return result;
 8000eac:	69fb      	ldr	r3, [r7, #28]
 8000eae:	627b      	str	r3, [r7, #36]	@ 0x24
  if (value == 0U)
 8000eb0:	6a7b      	ldr	r3, [r7, #36]	@ 0x24
 8000eb2:	2b00      	cmp	r3, #0
 8000eb4:	d101      	bne.n	8000eba <LL_GPIO_SetPinMode+0x58>
    return 32U;
 8000eb6:	2320      	movs	r3, #32
 8000eb8:	e003      	b.n	8000ec2 <LL_GPIO_SetPinMode+0x60>
  return __builtin_clz(value);
 8000eba:	6a7b      	ldr	r3, [r7, #36]	@ 0x24
 8000ebc:	fab3 f383 	clz	r3, r3
 8000ec0:	b2db      	uxtb	r3, r3
 8000ec2:	005b      	lsls	r3, r3, #1
 8000ec4:	6879      	ldr	r1, [r7, #4]
 8000ec6:	fa01 f303 	lsl.w	r3, r1, r3
 8000eca:	431a      	orrs	r2, r3
 8000ecc:	68fb      	ldr	r3, [r7, #12]
 8000ece:	601a      	str	r2, [r3, #0]
}
 8000ed0:	bf00      	nop
 8000ed2:	372c      	adds	r7, #44	@ 0x2c
 8000ed4:	46bd      	mov	sp, r7
 8000ed6:	f85d 7b04 	ldr.w	r7, [sp], #4
 8000eda:	4770      	bx	lr

08000edc <LL_GPIO_SetPinOutputType>:
  *         @arg @ref LL_GPIO_OUTPUT_PUSHPULL
  *         @arg @ref LL_GPIO_OUTPUT_OPENDRAIN
  * @retval None
  */
__STATIC_INLINE void LL_GPIO_SetPinOutputType(GPIO_TypeDef *GPIOx, uint32_t PinMask, uint32_t OutputType)
{
 8000edc:	b480      	push	{r7}
 8000ede:	b085      	sub	sp, #20
 8000ee0:	af00      	add	r7, sp, #0
 8000ee2:	60f8      	str	r0, [r7, #12]
 8000ee4:	60b9      	str	r1, [r7, #8]
 8000ee6:	607a      	str	r2, [r7, #4]
  MODIFY_REG(GPIOx->OTYPER, PinMask, (PinMask * OutputType));
 8000ee8:	68fb      	ldr	r3, [r7, #12]
 8000eea:	685a      	ldr	r2, [r3, #4]
 8000eec:	68bb      	ldr	r3, [r7, #8]
 8000eee:	43db      	mvns	r3, r3
 8000ef0:	401a      	ands	r2, r3
 8000ef2:	68bb      	ldr	r3, [r7, #8]
 8000ef4:	6879      	ldr	r1, [r7, #4]
 8000ef6:	fb01 f303 	mul.w	r3, r1, r3
 8000efa:	431a      	orrs	r2, r3
 8000efc:	68fb      	ldr	r3, [r7, #12]
 8000efe:	605a      	str	r2, [r3, #4]
}
 8000f00:	bf00      	nop
 8000f02:	3714      	adds	r7, #20
 8000f04:	46bd      	mov	sp, r7
 8000f06:	f85d 7b04 	ldr.w	r7, [sp], #4
 8000f0a:	4770      	bx	lr

08000f0c <LL_GPIO_SetPinSpeed>:
  *         @arg @ref LL_GPIO_SPEED_FREQ_HIGH
  *         @arg @ref LL_GPIO_SPEED_FREQ_VERY_HIGH
  * @retval None
  */
__STATIC_INLINE void LL_GPIO_SetPinSpeed(GPIO_TypeDef *GPIOx, uint32_t Pin, uint32_t  Speed)
{
 8000f0c:	b480      	push	{r7}
 8000f0e:	b08b      	sub	sp, #44	@ 0x2c
 8000f10:	af00      	add	r7, sp, #0
 8000f12:	60f8      	str	r0, [r7, #12]
 8000f14:	60b9      	str	r1, [r7, #8]
 8000f16:	607a      	str	r2, [r7, #4]
  MODIFY_REG(GPIOx->OSPEEDR, (GPIO_OSPEEDR_OSPEED0 << (POSITION_VAL(Pin) * 2U)),
 8000f18:	68fb      	ldr	r3, [r7, #12]
 8000f1a:	689a      	ldr	r2, [r3, #8]
 8000f1c:	68bb      	ldr	r3, [r7, #8]
 8000f1e:	617b      	str	r3, [r7, #20]
   __ASM volatile ("rbit %0, %1" : "=r" (result) : "r" (value) );
 8000f20:	697b      	ldr	r3, [r7, #20]
 8000f22:	fa93 f3a3 	rbit	r3, r3
 8000f26:	613b      	str	r3, [r7, #16]
  return result;
 8000f28:	693b      	ldr	r3, [r7, #16]
 8000f2a:	61bb      	str	r3, [r7, #24]
  if (value == 0U)
 8000f2c:	69bb      	ldr	r3, [r7, #24]
 8000f2e:	2b00      	cmp	r3, #0
 8000f30:	d101      	bne.n	8000f36 <LL_GPIO_SetPinSpeed+0x2a>
    return 32U;
 8000f32:	2320      	movs	r3, #32
 8000f34:	e003      	b.n	8000f3e <LL_GPIO_SetPinSpeed+0x32>
  return __builtin_clz(value);
 8000f36:	69bb      	ldr	r3, [r7, #24]
 8000f38:	fab3 f383 	clz	r3, r3
 8000f3c:	b2db      	uxtb	r3, r3
 8000f3e:	005b      	lsls	r3, r3, #1
 8000f40:	2103      	movs	r1, #3
 8000f42:	fa01 f303 	lsl.w	r3, r1, r3
 8000f46:	43db      	mvns	r3, r3
 8000f48:	401a      	ands	r2, r3
 8000f4a:	68bb      	ldr	r3, [r7, #8]
 8000f4c:	623b      	str	r3, [r7, #32]
   __ASM volatile ("rbit %0, %1" : "=r" (result) : "r" (value) );
 8000f4e:	6a3b      	ldr	r3, [r7, #32]
 8000f50:	fa93 f3a3 	rbit	r3, r3
 8000f54:	61fb      	str	r3, [r7, #28]
  return result;
 8000f56:	69fb      	ldr	r3, [r7, #28]
 8000f58:	627b      	str	r3, [r7, #36]	@ 0x24
  if (value == 0U)
 8000f5a:	6a7b      	ldr	r3, [r7, #36]	@ 0x24
 8000f5c:	2b00      	cmp	r3, #0
 8000f5e:	d101      	bne.n	8000f64 <LL_GPIO_SetPinSpeed+0x58>
    return 32U;
 8000f60:	2320      	movs	r3, #32
 8000f62:	e003      	b.n	8000f6c <LL_GPIO_SetPinSpeed+0x60>
  return __builtin_clz(value);
 8000f64:	6a7b      	ldr	r3, [r7, #36]	@ 0x24
 8000f66:	fab3 f383 	clz	r3, r3
 8000f6a:	b2db      	uxtb	r3, r3
 8000f6c:	005b      	lsls	r3, r3, #1
 8000f6e:	6879      	ldr	r1, [r7, #4]
 8000f70:	fa01 f303 	lsl.w	r3, r1, r3
 8000f74:	431a      	orrs	r2, r3
 8000f76:	68fb      	ldr	r3, [r7, #12]
 8000f78:	609a      	str	r2, [r3, #8]
             (Speed << (POSITION_VAL(Pin) * 2U)));
}
 8000f7a:	bf00      	nop
 8000f7c:	372c      	adds	r7, #44	@ 0x2c
 8000f7e:	46bd      	mov	sp, r7
 8000f80:	f85d 7b04 	ldr.w	r7, [sp], #4
 8000f84:	4770      	bx	lr

08000f86 <LL_GPIO_SetPinPull>:
  *         @arg @ref LL_GPIO_PULL_UP
  *         @arg @ref LL_GPIO_PULL_DOWN
  * @retval None
  */
__STATIC_INLINE void LL_GPIO_SetPinPull(GPIO_TypeDef *GPIOx, uint32_t Pin, uint32_t Pull)
{
 8000f86:	b480      	push	{r7}
 8000f88:	b08b      	sub	sp, #44	@ 0x2c
 8000f8a:	af00      	add	r7, sp, #0
 8000f8c:	60f8      	str	r0, [r7, #12]
 8000f8e:	60b9      	str	r1, [r7, #8]
 8000f90:	607a      	str	r2, [r7, #4]
  MODIFY_REG(GPIOx->PUPDR, (GPIO_PUPDR_PUPD0 << (POSITION_VAL(Pin) * 2U)), (Pull << (POSITION_VAL(Pin) * 2U)));
 8000f92:	68fb      	ldr	r3, [r7, #12]
 8000f94:	68da      	ldr	r2, [r3, #12]
 8000f96:	68bb      	ldr	r3, [r7, #8]
 8000f98:	617b      	str	r3, [r7, #20]
   __ASM volatile ("rbit %0, %1" : "=r" (result) : "r" (value) );
 8000f9a:	697b      	ldr	r3, [r7, #20]
 8000f9c:	fa93 f3a3 	rbit	r3, r3
 8000fa0:	613b      	str	r3, [r7, #16]
  return result;
 8000fa2:	693b      	ldr	r3, [r7, #16]
 8000fa4:	61bb      	str	r3, [r7, #24]
  if (value == 0U)
 8000fa6:	69bb      	ldr	r3, [r7, #24]
 8000fa8:	2b00      	cmp	r3, #0
 8000faa:	d101      	bne.n	8000fb0 <LL_GPIO_SetPinPull+0x2a>
    return 32U;
 8000fac:	2320      	movs	r3, #32
 8000fae:	e003      	b.n	8000fb8 <LL_GPIO_SetPinPull+0x32>
  return __builtin_clz(value);
 8000fb0:	69bb      	ldr	r3, [r7, #24]
 8000fb2:	fab3 f383 	clz	r3, r3
 8000fb6:	b2db      	uxtb	r3, r3
 8000fb8:	005b      	lsls	r3, r3, #1
 8000fba:	2103      	movs	r1, #3
 8000fbc:	fa01 f303 	lsl.w	r3, r1, r3
 8000fc0:	43db      	mvns	r3, r3
 8000fc2:	401a      	ands	r2, r3
 8000fc4:	68bb      	ldr	r3, [r7, #8]
 8000fc6:	623b      	str	r3, [r7, #32]
   __ASM volatile ("rbit %0, %1" : "=r" (result) : "r" (value) );
 8000fc8:	6a3b      	ldr	r3, [r7, #32]
 8000fca:	fa93 f3a3 	rbit	r3, r3
 8000fce:	61fb      	str	r3, [r7, #28]
  return result;
 8000fd0:	69fb      	ldr	r3, [r7, #28]
 8000fd2:	627b      	str	r3, [r7, #36]	@ 0x24
  if (value == 0U)
 8000fd4:	6a7b      	ldr	r3, [r7, #36]	@ 0x24
 8000fd6:	2b00      	cmp	r3, #0
 8000fd8:	d101      	bne.n	8000fde <LL_GPIO_SetPinPull+0x58>
    return 32U;
 8000fda:	2320      	movs	r3, #32
 8000fdc:	e003      	b.n	8000fe6 <LL_GPIO_SetPinPull+0x60>
  return __builtin_clz(value);
 8000fde:	6a7b      	ldr	r3, [r7, #36]	@ 0x24
 8000fe0:	fab3 f383 	clz	r3, r3
 8000fe4:	b2db      	uxtb	r3, r3
 8000fe6:	005b      	lsls	r3, r3, #1
 8000fe8:	6879      	ldr	r1, [r7, #4]
 8000fea:	fa01 f303 	lsl.w	r3, r1, r3
 8000fee:	431a      	orrs	r2, r3
 8000ff0:	68fb      	ldr	r3, [r7, #12]
 8000ff2:	60da      	str	r2, [r3, #12]
}
 8000ff4:	bf00      	nop
 8000ff6:	372c      	adds	r7, #44	@ 0x2c
 8000ff8:	46bd      	mov	sp, r7
 8000ffa:	f85d 7b04 	ldr.w	r7, [sp], #4
 8000ffe:	4770      	bx	lr

08001000 <LL_GPIO_SetAFPin_0_7>:
  *         @arg @ref LL_GPIO_AF_14
  *         @arg @ref LL_GPIO_AF_15
  * @retval None
  */
__STATIC_INLINE void LL_GPIO_SetAFPin_0_7(GPIO_TypeDef *GPIOx, uint32_t Pin, uint32_t Alternate)
{
 8001000:	b480      	push	{r7}
 8001002:	b08b      	sub	sp, #44	@ 0x2c
 8001004:	af00      	add	r7, sp, #0
 8001006:	60f8      	str	r0, [r7, #12]
 8001008:	60b9      	str	r1, [r7, #8]
 800100a:	607a      	str	r2, [r7, #4]
  MODIFY_REG(GPIOx->AFR[0], (GPIO_AFRL_AFSEL0 << (POSITION_VAL(Pin) * 4U)),
 800100c:	68fb      	ldr	r3, [r7, #12]
 800100e:	6a1a      	ldr	r2, [r3, #32]
 8001010:	68bb      	ldr	r3, [r7, #8]
 8001012:	617b      	str	r3, [r7, #20]
   __ASM volatile ("rbit %0, %1" : "=r" (result) : "r" (value) );
 8001014:	697b      	ldr	r3, [r7, #20]
 8001016:	fa93 f3a3 	rbit	r3, r3
 800101a:	613b      	str	r3, [r7, #16]
  return result;
 800101c:	693b      	ldr	r3, [r7, #16]
 800101e:	61bb      	str	r3, [r7, #24]
  if (value == 0U)
 8001020:	69bb      	ldr	r3, [r7, #24]
 8001022:	2b00      	cmp	r3, #0
 8001024:	d101      	bne.n	800102a <LL_GPIO_SetAFPin_0_7+0x2a>
    return 32U;
 8001026:	2320      	movs	r3, #32
 8001028:	e003      	b.n	8001032 <LL_GPIO_SetAFPin_0_7+0x32>
  return __builtin_clz(value);
 800102a:	69bb      	ldr	r3, [r7, #24]
 800102c:	fab3 f383 	clz	r3, r3
 8001030:	b2db      	uxtb	r3, r3
 8001032:	009b      	lsls	r3, r3, #2
 8001034:	210f      	movs	r1, #15
 8001036:	fa01 f303 	lsl.w	r3, r1, r3
 800103a:	43db      	mvns	r3, r3
 800103c:	401a      	ands	r2, r3
 800103e:	68bb      	ldr	r3, [r7, #8]
 8001040:	623b      	str	r3, [r7, #32]
   __ASM volatile ("rbit %0, %1" : "=r" (result) : "r" (value) );
 8001042:	6a3b      	ldr	r3, [r7, #32]
 8001044:	fa93 f3a3 	rbit	r3, r3
 8001048:	61fb      	str	r3, [r7, #28]
  return result;
 800104a:	69fb      	ldr	r3, [r7, #28]
 800104c:	627b      	str	r3, [r7, #36]	@ 0x24
  if (value == 0U)
 800104e:	6a7b      	ldr	r3, [r7, #36]	@ 0x24
 8001050:	2b00      	cmp	r3, #0
 8001052:	d101      	bne.n	8001058 <LL_GPIO_SetAFPin_0_7+0x58>
    return 32U;
 8001054:	2320      	movs	r3, #32
 8001056:	e003      	b.n	8001060 <LL_GPIO_SetAFPin_0_7+0x60>
  return __builtin_clz(value);
 8001058:	6a7b      	ldr	r3, [r7, #36]	@ 0x24
 800105a:	fab3 f383 	clz	r3, r3
 800105e:	b2db      	uxtb	r3, r3
 8001060:	009b      	lsls	r3, r3, #2
 8001062:	6879      	ldr	r1, [r7, #4]
 8001064:	fa01 f303 	lsl.w	r3, r1, r3
 8001068:	431a      	orrs	r2, r3
 800106a:	68fb      	ldr	r3, [r7, #12]
 800106c:	621a      	str	r2, [r3, #32]
             (Alternate << (POSITION_VAL(Pin) * 4U)));
}
 800106e:	bf00      	nop
 8001070:	372c      	adds	r7, #44	@ 0x2c
 8001072:	46bd      	mov	sp, r7
 8001074:	f85d 7b04 	ldr.w	r7, [sp], #4
 8001078:	4770      	bx	lr

0800107a <LL_GPIO_SetAFPin_8_15>:
  *         @arg @ref LL_GPIO_AF_14
  *         @arg @ref LL_GPIO_AF_15
  * @retval None
  */
__STATIC_INLINE void LL_GPIO_SetAFPin_8_15(GPIO_TypeDef *GPIOx, uint32_t Pin, uint32_t Alternate)
{
 800107a:	b480      	push	{r7}
 800107c:	b08b      	sub	sp, #44	@ 0x2c
 800107e:	af00      	add	r7, sp, #0
 8001080:	60f8      	str	r0, [r7, #12]
 8001082:	60b9      	str	r1, [r7, #8]
 8001084:	607a      	str	r2, [r7, #4]
  MODIFY_REG(GPIOx->AFR[1], (GPIO_AFRH_AFSEL8 << (POSITION_VAL(Pin >> 8U) * 4U)),
 8001086:	68fb      	ldr	r3, [r7, #12]
 8001088:	6a5a      	ldr	r2, [r3, #36]	@ 0x24
 800108a:	68bb      	ldr	r3, [r7, #8]
 800108c:	0a1b      	lsrs	r3, r3, #8
 800108e:	617b      	str	r3, [r7, #20]
   __ASM volatile ("rbit %0, %1" : "=r" (result) : "r" (value) );
 8001090:	697b      	ldr	r3, [r7, #20]
 8001092:	fa93 f3a3 	rbit	r3, r3
 8001096:	613b      	str	r3, [r7, #16]
  return result;
 8001098:	693b      	ldr	r3, [r7, #16]
 800109a:	61bb      	str	r3, [r7, #24]
  if (value == 0U)
 800109c:	69bb      	ldr	r3, [r7, #24]
 800109e:	2b00      	cmp	r3, #0
 80010a0:	d101      	bne.n	80010a6 <LL_GPIO_SetAFPin_8_15+0x2c>
    return 32U;
 80010a2:	2320      	movs	r3, #32
 80010a4:	e003      	b.n	80010ae <LL_GPIO_SetAFPin_8_15+0x34>
  return __builtin_clz(value);
 80010a6:	69bb      	ldr	r3, [r7, #24]
 80010a8:	fab3 f383 	clz	r3, r3
 80010ac:	b2db      	uxtb	r3, r3
 80010ae:	009b      	lsls	r3, r3, #2
 80010b0:	210f      	movs	r1, #15
 80010b2:	fa01 f303 	lsl.w	r3, r1, r3
 80010b6:	43db      	mvns	r3, r3
 80010b8:	401a      	ands	r2, r3
 80010ba:	68bb      	ldr	r3, [r7, #8]
 80010bc:	0a1b      	lsrs	r3, r3, #8
 80010be:	623b      	str	r3, [r7, #32]
   __ASM volatile ("rbit %0, %1" : "=r" (result) : "r" (value) );
 80010c0:	6a3b      	ldr	r3, [r7, #32]
 80010c2:	fa93 f3a3 	rbit	r3, r3
 80010c6:	61fb      	str	r3, [r7, #28]
  return result;
 80010c8:	69fb      	ldr	r3, [r7, #28]
 80010ca:	627b      	str	r3, [r7, #36]	@ 0x24
  if (value == 0U)
 80010cc:	6a7b      	ldr	r3, [r7, #36]	@ 0x24
 80010ce:	2b00      	cmp	r3, #0
 80010d0:	d101      	bne.n	80010d6 <LL_GPIO_SetAFPin_8_15+0x5c>
    return 32U;
 80010d2:	2320      	movs	r3, #32
 80010d4:	e003      	b.n	80010de <LL_GPIO_SetAFPin_8_15+0x64>
  return __builtin_clz(value);
 80010d6:	6a7b      	ldr	r3, [r7, #36]	@ 0x24
 80010d8:	fab3 f383 	clz	r3, r3
 80010dc:	b2db      	uxtb	r3, r3
 80010de:	009b      	lsls	r3, r3, #2
 80010e0:	6879      	ldr	r1, [r7, #4]
 80010e2:	fa01 f303 	lsl.w	r3, r1, r3
 80010e6:	431a      	orrs	r2, r3
 80010e8:	68fb      	ldr	r3, [r7, #12]
 80010ea:	625a      	str	r2, [r3, #36]	@ 0x24
             (Alternate << (POSITION_VAL(Pin >> 8U) * 4U)));
}
 80010ec:	bf00      	nop
 80010ee:	372c      	adds	r7, #44	@ 0x2c
 80010f0:	46bd      	mov	sp, r7
 80010f2:	f85d 7b04 	ldr.w	r7, [sp], #4
 80010f6:	4770      	bx	lr

080010f8 <LL_GPIO_Init>:
  * @retval An ErrorStatus enumeration value:
  *          - SUCCESS: GPIO registers are initialized according to GPIO_InitStruct content
  *          - ERROR:   Not applicable
  */
ErrorStatus LL_GPIO_Init(GPIO_TypeDef *GPIOx, LL_GPIO_InitTypeDef *GPIO_InitStruct)
{
 80010f8:	b580      	push	{r7, lr}
 80010fa:	b08a      	sub	sp, #40	@ 0x28
 80010fc:	af00      	add	r7, sp, #0
 80010fe:	6078      	str	r0, [r7, #4]
 8001100:	6039      	str	r1, [r7, #0]
  uint32_t pinpos;
  uint32_t currentpin;

  /* Check the parameters */
  assert_param(IS_GPIO_ALL_INSTANCE(GPIOx));
 8001102:	687b      	ldr	r3, [r7, #4]
 8001104:	f1b3 4f90 	cmp.w	r3, #1207959552	@ 0x48000000
 8001108:	d017      	beq.n	800113a <LL_GPIO_Init+0x42>
 800110a:	687b      	ldr	r3, [r7, #4]
 800110c:	4a83      	ldr	r2, [pc, #524]	@ (800131c <LL_GPIO_Init+0x224>)
 800110e:	4293      	cmp	r3, r2
 8001110:	d013      	beq.n	800113a <LL_GPIO_Init+0x42>
 8001112:	687b      	ldr	r3, [r7, #4]
 8001114:	4a82      	ldr	r2, [pc, #520]	@ (8001320 <LL_GPIO_Init+0x228>)
 8001116:	4293      	cmp	r3, r2
 8001118:	d00f      	beq.n	800113a <LL_GPIO_Init+0x42>
 800111a:	687b      	ldr	r3, [r7, #4]
 800111c:	4a81      	ldr	r2, [pc, #516]	@ (8001324 <LL_GPIO_Init+0x22c>)
 800111e:	4293      	cmp	r3, r2
 8001120:	d00b      	beq.n	800113a <LL_GPIO_Init+0x42>
 8001122:	687b      	ldr	r3, [r7, #4]
 8001124:	4a80      	ldr	r2, [pc, #512]	@ (8001328 <LL_GPIO_Init+0x230>)
 8001126:	4293      	cmp	r3, r2
 8001128:	d007      	beq.n	800113a <LL_GPIO_Init+0x42>
 800112a:	687b      	ldr	r3, [r7, #4]
 800112c:	4a7f      	ldr	r2, [pc, #508]	@ (800132c <LL_GPIO_Init+0x234>)
 800112e:	4293      	cmp	r3, r2
 8001130:	d003      	beq.n	800113a <LL_GPIO_Init+0x42>
 8001132:	21af      	movs	r1, #175	@ 0xaf
 8001134:	487e      	ldr	r0, [pc, #504]	@ (8001330 <LL_GPIO_Init+0x238>)
 8001136:	f7ff fbce 	bl	80008d6 <assert_failed>
  assert_param(IS_LL_GPIO_PIN(GPIO_InitStruct->Pin));
 800113a:	683b      	ldr	r3, [r7, #0]
 800113c:	681b      	ldr	r3, [r3, #0]
 800113e:	2b00      	cmp	r3, #0
 8001140:	d004      	beq.n	800114c <LL_GPIO_Init+0x54>
 8001142:	683b      	ldr	r3, [r7, #0]
 8001144:	681b      	ldr	r3, [r3, #0]
 8001146:	f5b3 3f80 	cmp.w	r3, #65536	@ 0x10000
 800114a:	d303      	bcc.n	8001154 <LL_GPIO_Init+0x5c>
 800114c:	21b0      	movs	r1, #176	@ 0xb0
 800114e:	4878      	ldr	r0, [pc, #480]	@ (8001330 <LL_GPIO_Init+0x238>)
 8001150:	f7ff fbc1 	bl	80008d6 <assert_failed>
  assert_param(IS_LL_GPIO_MODE(GPIO_InitStruct->Mode));
 8001154:	683b      	ldr	r3, [r7, #0]
 8001156:	685b      	ldr	r3, [r3, #4]
 8001158:	2b00      	cmp	r3, #0
 800115a:	d00f      	beq.n	800117c <LL_GPIO_Init+0x84>
 800115c:	683b      	ldr	r3, [r7, #0]
 800115e:	685b      	ldr	r3, [r3, #4]
 8001160:	2b01      	cmp	r3, #1
 8001162:	d00b      	beq.n	800117c <LL_GPIO_Init+0x84>
 8001164:	683b      	ldr	r3, [r7, #0]
 8001166:	685b      	ldr	r3, [r3, #4]
 8001168:	2b02      	cmp	r3, #2
 800116a:	d007      	beq.n	800117c <LL_GPIO_Init+0x84>
 800116c:	683b      	ldr	r3, [r7, #0]
 800116e:	685b      	ldr	r3, [r3, #4]
 8001170:	2b03      	cmp	r3, #3
 8001172:	d003      	beq.n	800117c <LL_GPIO_Init+0x84>
 8001174:	21b1      	movs	r1, #177	@ 0xb1
 8001176:	486e      	ldr	r0, [pc, #440]	@ (8001330 <LL_GPIO_Init+0x238>)
 8001178:	f7ff fbad 	bl	80008d6 <assert_failed>
  assert_param(IS_LL_GPIO_PULL(GPIO_InitStruct->Pull));
 800117c:	683b      	ldr	r3, [r7, #0]
 800117e:	691b      	ldr	r3, [r3, #16]
 8001180:	2b00      	cmp	r3, #0
 8001182:	d00b      	beq.n	800119c <LL_GPIO_Init+0xa4>
 8001184:	683b      	ldr	r3, [r7, #0]
 8001186:	691b      	ldr	r3, [r3, #16]
 8001188:	2b01      	cmp	r3, #1
 800118a:	d007      	beq.n	800119c <LL_GPIO_Init+0xa4>
 800118c:	683b      	ldr	r3, [r7, #0]
 800118e:	691b      	ldr	r3, [r3, #16]
 8001190:	2b02      	cmp	r3, #2
 8001192:	d003      	beq.n	800119c <LL_GPIO_Init+0xa4>
 8001194:	21b2      	movs	r1, #178	@ 0xb2
 8001196:	4866      	ldr	r0, [pc, #408]	@ (8001330 <LL_GPIO_Init+0x238>)
 8001198:	f7ff fb9d 	bl	80008d6 <assert_failed>

  /* ------------------------- Configure the port pins ---------------- */
  /* Initialize  pinpos on first pin set */
  pinpos = POSITION_VAL(GPIO_InitStruct->Pin);
 800119c:	683b      	ldr	r3, [r7, #0]
 800119e:	681b      	ldr	r3, [r3, #0]
 80011a0:	61bb      	str	r3, [r7, #24]
   __ASM volatile ("rbit %0, %1" : "=r" (result) : "r" (value) );
 80011a2:	69bb      	ldr	r3, [r7, #24]
 80011a4:	fa93 f3a3 	rbit	r3, r3
 80011a8:	617b      	str	r3, [r7, #20]
  return result;
 80011aa:	697b      	ldr	r3, [r7, #20]
 80011ac:	61fb      	str	r3, [r7, #28]
  if (value == 0U)
 80011ae:	69fb      	ldr	r3, [r7, #28]
 80011b0:	2b00      	cmp	r3, #0
 80011b2:	d101      	bne.n	80011b8 <LL_GPIO_Init+0xc0>
    return 32U;
 80011b4:	2320      	movs	r3, #32
 80011b6:	e003      	b.n	80011c0 <LL_GPIO_Init+0xc8>
  return __builtin_clz(value);
 80011b8:	69fb      	ldr	r3, [r7, #28]
 80011ba:	fab3 f383 	clz	r3, r3
 80011be:	b2db      	uxtb	r3, r3
 80011c0:	627b      	str	r3, [r7, #36]	@ 0x24

  /* Configure the port pins */
  while (((GPIO_InitStruct->Pin) >> pinpos) != 0x00u)
 80011c2:	e0c8      	b.n	8001356 <LL_GPIO_Init+0x25e>
  {
    /* Get current io position */
    currentpin = (GPIO_InitStruct->Pin) & (0x00000001uL << pinpos);
 80011c4:	683b      	ldr	r3, [r7, #0]
 80011c6:	681a      	ldr	r2, [r3, #0]
 80011c8:	2101      	movs	r1, #1
 80011ca:	6a7b      	ldr	r3, [r7, #36]	@ 0x24
 80011cc:	fa01 f303 	lsl.w	r3, r1, r3
 80011d0:	4013      	ands	r3, r2
 80011d2:	623b      	str	r3, [r7, #32]

    if (currentpin != 0x00u)
 80011d4:	6a3b      	ldr	r3, [r7, #32]
 80011d6:	2b00      	cmp	r3, #0
 80011d8:	f000 80ba 	beq.w	8001350 <LL_GPIO_Init+0x258>
    {
      if ((GPIO_InitStruct->Mode == LL_GPIO_MODE_OUTPUT) || (GPIO_InitStruct->Mode == LL_GPIO_MODE_ALTERNATE))
 80011dc:	683b      	ldr	r3, [r7, #0]
 80011de:	685b      	ldr	r3, [r3, #4]
 80011e0:	2b01      	cmp	r3, #1
 80011e2:	d003      	beq.n	80011ec <LL_GPIO_Init+0xf4>
 80011e4:	683b      	ldr	r3, [r7, #0]
 80011e6:	685b      	ldr	r3, [r3, #4]
 80011e8:	2b02      	cmp	r3, #2
 80011ea:	d12d      	bne.n	8001248 <LL_GPIO_Init+0x150>
      {
        /* Check Speed mode parameters */
        assert_param(IS_LL_GPIO_SPEED(GPIO_InitStruct->Speed));
 80011ec:	683b      	ldr	r3, [r7, #0]
 80011ee:	689b      	ldr	r3, [r3, #8]
 80011f0:	2b00      	cmp	r3, #0
 80011f2:	d00f      	beq.n	8001214 <LL_GPIO_Init+0x11c>
 80011f4:	683b      	ldr	r3, [r7, #0]
 80011f6:	689b      	ldr	r3, [r3, #8]
 80011f8:	2b01      	cmp	r3, #1
 80011fa:	d00b      	beq.n	8001214 <LL_GPIO_Init+0x11c>
 80011fc:	683b      	ldr	r3, [r7, #0]
 80011fe:	689b      	ldr	r3, [r3, #8]
 8001200:	2b02      	cmp	r3, #2
 8001202:	d007      	beq.n	8001214 <LL_GPIO_Init+0x11c>
 8001204:	683b      	ldr	r3, [r7, #0]
 8001206:	689b      	ldr	r3, [r3, #8]
 8001208:	2b03      	cmp	r3, #3
 800120a:	d003      	beq.n	8001214 <LL_GPIO_Init+0x11c>
 800120c:	21c3      	movs	r1, #195	@ 0xc3
 800120e:	4848      	ldr	r0, [pc, #288]	@ (8001330 <LL_GPIO_Init+0x238>)
 8001210:	f7ff fb61 	bl	80008d6 <assert_failed>

        /* Speed mode configuration */
        LL_GPIO_SetPinSpeed(GPIOx, currentpin, GPIO_InitStruct->Speed);
 8001214:	683b      	ldr	r3, [r7, #0]
 8001216:	689b      	ldr	r3, [r3, #8]
 8001218:	461a      	mov	r2, r3
 800121a:	6a39      	ldr	r1, [r7, #32]
 800121c:	6878      	ldr	r0, [r7, #4]
 800121e:	f7ff fe75 	bl	8000f0c <LL_GPIO_SetPinSpeed>

        /* Check Output mode parameters */
        assert_param(IS_LL_GPIO_OUTPUT_TYPE(GPIO_InitStruct->OutputType));
 8001222:	683b      	ldr	r3, [r7, #0]
 8001224:	68db      	ldr	r3, [r3, #12]
 8001226:	2b00      	cmp	r3, #0
 8001228:	d007      	beq.n	800123a <LL_GPIO_Init+0x142>
 800122a:	683b      	ldr	r3, [r7, #0]
 800122c:	68db      	ldr	r3, [r3, #12]
 800122e:	2b01      	cmp	r3, #1
 8001230:	d003      	beq.n	800123a <LL_GPIO_Init+0x142>
 8001232:	21c9      	movs	r1, #201	@ 0xc9
 8001234:	483e      	ldr	r0, [pc, #248]	@ (8001330 <LL_GPIO_Init+0x238>)
 8001236:	f7ff fb4e 	bl	80008d6 <assert_failed>

        /* Output mode configuration*/
        LL_GPIO_SetPinOutputType(GPIOx, currentpin, GPIO_InitStruct->OutputType);
 800123a:	683b      	ldr	r3, [r7, #0]
 800123c:	68db      	ldr	r3, [r3, #12]
 800123e:	461a      	mov	r2, r3
 8001240:	6a39      	ldr	r1, [r7, #32]
 8001242:	6878      	ldr	r0, [r7, #4]
 8001244:	f7ff fe4a 	bl	8000edc <LL_GPIO_SetPinOutputType>
      }

      /* Pull-up Pull down resistor configuration*/
      LL_GPIO_SetPinPull(GPIOx, currentpin, GPIO_InitStruct->Pull);
 8001248:	683b      	ldr	r3, [r7, #0]
 800124a:	691b      	ldr	r3, [r3, #16]
 800124c:	461a      	mov	r2, r3
 800124e:	6a39      	ldr	r1, [r7, #32]
 8001250:	6878      	ldr	r0, [r7, #4]
 8001252:	f7ff fe98 	bl	8000f86 <LL_GPIO_SetPinPull>

      if (GPIO_InitStruct->Mode == LL_GPIO_MODE_ALTERNATE)
 8001256:	683b      	ldr	r3, [r7, #0]
 8001258:	685b      	ldr	r3, [r3, #4]
 800125a:	2b02      	cmp	r3, #2
 800125c:	d171      	bne.n	8001342 <LL_GPIO_Init+0x24a>
      {
        /* Check Alternate parameter */
        assert_param(IS_LL_GPIO_ALTERNATE(GPIO_InitStruct->Alternate));
 800125e:	683b      	ldr	r3, [r7, #0]
 8001260:	695b      	ldr	r3, [r3, #20]
 8001262:	2b00      	cmp	r3, #0
 8001264:	d03f      	beq.n	80012e6 <LL_GPIO_Init+0x1ee>
 8001266:	683b      	ldr	r3, [r7, #0]
 8001268:	695b      	ldr	r3, [r3, #20]
 800126a:	2b01      	cmp	r3, #1
 800126c:	d03b      	beq.n	80012e6 <LL_GPIO_Init+0x1ee>
 800126e:	683b      	ldr	r3, [r7, #0]
 8001270:	695b      	ldr	r3, [r3, #20]
 8001272:	2b02      	cmp	r3, #2
 8001274:	d037      	beq.n	80012e6 <LL_GPIO_Init+0x1ee>
 8001276:	683b      	ldr	r3, [r7, #0]
 8001278:	695b      	ldr	r3, [r3, #20]
 800127a:	2b03      	cmp	r3, #3
 800127c:	d033      	beq.n	80012e6 <LL_GPIO_Init+0x1ee>
 800127e:	683b      	ldr	r3, [r7, #0]
 8001280:	695b      	ldr	r3, [r3, #20]
 8001282:	2b04      	cmp	r3, #4
 8001284:	d02f      	beq.n	80012e6 <LL_GPIO_Init+0x1ee>
 8001286:	683b      	ldr	r3, [r7, #0]
 8001288:	695b      	ldr	r3, [r3, #20]
 800128a:	2b05      	cmp	r3, #5
 800128c:	d02b      	beq.n	80012e6 <LL_GPIO_Init+0x1ee>
 800128e:	683b      	ldr	r3, [r7, #0]
 8001290:	695b      	ldr	r3, [r3, #20]
 8001292:	2b06      	cmp	r3, #6
 8001294:	d027      	beq.n	80012e6 <LL_GPIO_Init+0x1ee>
 8001296:	683b      	ldr	r3, [r7, #0]
 8001298:	695b      	ldr	r3, [r3, #20]
 800129a:	2b07      	cmp	r3, #7
 800129c:	d023      	beq.n	80012e6 <LL_GPIO_Init+0x1ee>
 800129e:	683b      	ldr	r3, [r7, #0]
 80012a0:	695b      	ldr	r3, [r3, #20]
 80012a2:	2b08      	cmp	r3, #8
 80012a4:	d01f      	beq.n	80012e6 <LL_GPIO_Init+0x1ee>
 80012a6:	683b      	ldr	r3, [r7, #0]
 80012a8:	695b      	ldr	r3, [r3, #20]
 80012aa:	2b09      	cmp	r3, #9
 80012ac:	d01b      	beq.n	80012e6 <LL_GPIO_Init+0x1ee>
 80012ae:	683b      	ldr	r3, [r7, #0]
 80012b0:	695b      	ldr	r3, [r3, #20]
 80012b2:	2b0a      	cmp	r3, #10
 80012b4:	d017      	beq.n	80012e6 <LL_GPIO_Init+0x1ee>
 80012b6:	683b      	ldr	r3, [r7, #0]
 80012b8:	695b      	ldr	r3, [r3, #20]
 80012ba:	2b0b      	cmp	r3, #11
 80012bc:	d013      	beq.n	80012e6 <LL_GPIO_Init+0x1ee>
 80012be:	683b      	ldr	r3, [r7, #0]
 80012c0:	695b      	ldr	r3, [r3, #20]
 80012c2:	2b0c      	cmp	r3, #12
 80012c4:	d00f      	beq.n	80012e6 <LL_GPIO_Init+0x1ee>
 80012c6:	683b      	ldr	r3, [r7, #0]
 80012c8:	695b      	ldr	r3, [r3, #20]
 80012ca:	2b0d      	cmp	r3, #13
 80012cc:	d00b      	beq.n	80012e6 <LL_GPIO_Init+0x1ee>
 80012ce:	683b      	ldr	r3, [r7, #0]
 80012d0:	695b      	ldr	r3, [r3, #20]
 80012d2:	2b0e      	cmp	r3, #14
 80012d4:	d007      	beq.n	80012e6 <LL_GPIO_Init+0x1ee>
 80012d6:	683b      	ldr	r3, [r7, #0]
 80012d8:	695b      	ldr	r3, [r3, #20]
 80012da:	2b0f      	cmp	r3, #15
 80012dc:	d003      	beq.n	80012e6 <LL_GPIO_Init+0x1ee>
 80012de:	21d5      	movs	r1, #213	@ 0xd5
 80012e0:	4813      	ldr	r0, [pc, #76]	@ (8001330 <LL_GPIO_Init+0x238>)
 80012e2:	f7ff faf8 	bl	80008d6 <assert_failed>
 80012e6:	6a3b      	ldr	r3, [r7, #32]
 80012e8:	60fb      	str	r3, [r7, #12]
   __ASM volatile ("rbit %0, %1" : "=r" (result) : "r" (value) );
 80012ea:	68fb      	ldr	r3, [r7, #12]
 80012ec:	fa93 f3a3 	rbit	r3, r3
 80012f0:	60bb      	str	r3, [r7, #8]
  return result;
 80012f2:	68bb      	ldr	r3, [r7, #8]
 80012f4:	613b      	str	r3, [r7, #16]
  if (value == 0U)
 80012f6:	693b      	ldr	r3, [r7, #16]
 80012f8:	2b00      	cmp	r3, #0
 80012fa:	d101      	bne.n	8001300 <LL_GPIO_Init+0x208>
    return 32U;
 80012fc:	2320      	movs	r3, #32
 80012fe:	e003      	b.n	8001308 <LL_GPIO_Init+0x210>
  return __builtin_clz(value);
 8001300:	693b      	ldr	r3, [r7, #16]
 8001302:	fab3 f383 	clz	r3, r3
 8001306:	b2db      	uxtb	r3, r3

        /* Speed mode configuration */
        if (POSITION_VAL(currentpin) < 0x00000008uL)
 8001308:	2b07      	cmp	r3, #7
 800130a:	d813      	bhi.n	8001334 <LL_GPIO_Init+0x23c>
        {
          LL_GPIO_SetAFPin_0_7(GPIOx, currentpin, GPIO_InitStruct->Alternate);
 800130c:	683b      	ldr	r3, [r7, #0]
 800130e:	695b      	ldr	r3, [r3, #20]
 8001310:	461a      	mov	r2, r3
 8001312:	6a39      	ldr	r1, [r7, #32]
 8001314:	6878      	ldr	r0, [r7, #4]
 8001316:	f7ff fe73 	bl	8001000 <LL_GPIO_SetAFPin_0_7>
 800131a:	e012      	b.n	8001342 <LL_GPIO_Init+0x24a>
 800131c:	48000400 	.word	0x48000400
 8001320:	48000800 	.word	0x48000800
 8001324:	48000c00 	.word	0x48000c00
 8001328:	48001000 	.word	0x48001000
 800132c:	48001c00 	.word	0x48001c00
 8001330:	08001b74 	.word	0x08001b74
        }
        else
        {
          LL_GPIO_SetAFPin_8_15(GPIOx, currentpin, GPIO_InitStruct->Alternate);
 8001334:	683b      	ldr	r3, [r7, #0]
 8001336:	695b      	ldr	r3, [r3, #20]
 8001338:	461a      	mov	r2, r3
 800133a:	6a39      	ldr	r1, [r7, #32]
 800133c:	6878      	ldr	r0, [r7, #4]
 800133e:	f7ff fe9c 	bl	800107a <LL_GPIO_SetAFPin_8_15>
        }
      }

      /* Pin Mode configuration */
      LL_GPIO_SetPinMode(GPIOx, currentpin, GPIO_InitStruct->Mode);
 8001342:	683b      	ldr	r3, [r7, #0]
 8001344:	685b      	ldr	r3, [r3, #4]
 8001346:	461a      	mov	r2, r3
 8001348:	6a39      	ldr	r1, [r7, #32]
 800134a:	6878      	ldr	r0, [r7, #4]
 800134c:	f7ff fd89 	bl	8000e62 <LL_GPIO_SetPinMode>
    }
    pinpos++;
 8001350:	6a7b      	ldr	r3, [r7, #36]	@ 0x24
 8001352:	3301      	adds	r3, #1
 8001354:	627b      	str	r3, [r7, #36]	@ 0x24
  while (((GPIO_InitStruct->Pin) >> pinpos) != 0x00u)
 8001356:	683b      	ldr	r3, [r7, #0]
 8001358:	681a      	ldr	r2, [r3, #0]
 800135a:	6a7b      	ldr	r3, [r7, #36]	@ 0x24
 800135c:	fa22 f303 	lsr.w	r3, r2, r3
 8001360:	2b00      	cmp	r3, #0
 8001362:	f47f af2f 	bne.w	80011c4 <LL_GPIO_Init+0xcc>
  }

  return (SUCCESS);
 8001366:	2300      	movs	r3, #0
}
 8001368:	4618      	mov	r0, r3
 800136a:	3728      	adds	r7, #40	@ 0x28
 800136c:	46bd      	mov	sp, r7
 800136e:	bd80      	pop	{r7, pc}

08001370 <LL_RCC_HSE_IsEnabledDiv2>:
{
 8001370:	b480      	push	{r7}
 8001372:	af00      	add	r7, sp, #0
  return ((READ_BIT(RCC->CR, RCC_CR_HSEPRE) == (RCC_CR_HSEPRE)) ? 1UL : 0UL);
 8001374:	f04f 43b0 	mov.w	r3, #1476395008	@ 0x58000000
 8001378:	681b      	ldr	r3, [r3, #0]
 800137a:	f403 1380 	and.w	r3, r3, #1048576	@ 0x100000
 800137e:	f5b3 1f80 	cmp.w	r3, #1048576	@ 0x100000
 8001382:	d101      	bne.n	8001388 <LL_RCC_HSE_IsEnabledDiv2+0x18>
 8001384:	2301      	movs	r3, #1
 8001386:	e000      	b.n	800138a <LL_RCC_HSE_IsEnabledDiv2+0x1a>
 8001388:	2300      	movs	r3, #0
}
 800138a:	4618      	mov	r0, r3
 800138c:	46bd      	mov	sp, r7
 800138e:	f85d 7b04 	ldr.w	r7, [sp], #4
 8001392:	4770      	bx	lr

08001394 <LL_RCC_HSI_IsReady>:
{
 8001394:	b480      	push	{r7}
 8001396:	af00      	add	r7, sp, #0
  return ((READ_BIT(RCC->CR, RCC_CR_HSIRDY) == (RCC_CR_HSIRDY)) ? 1UL : 0UL);
 8001398:	f04f 43b0 	mov.w	r3, #1476395008	@ 0x58000000
 800139c:	681b      	ldr	r3, [r3, #0]
 800139e:	f403 6380 	and.w	r3, r3, #1024	@ 0x400
 80013a2:	f5b3 6f80 	cmp.w	r3, #1024	@ 0x400
 80013a6:	d101      	bne.n	80013ac <LL_RCC_HSI_IsReady+0x18>
 80013a8:	2301      	movs	r3, #1
 80013aa:	e000      	b.n	80013ae <LL_RCC_HSI_IsReady+0x1a>
 80013ac:	2300      	movs	r3, #0
}
 80013ae:	4618      	mov	r0, r3
 80013b0:	46bd      	mov	sp, r7
 80013b2:	f85d 7b04 	ldr.w	r7, [sp], #4
 80013b6:	4770      	bx	lr

080013b8 <LL_RCC_LSE_IsReady>:
{
 80013b8:	b480      	push	{r7}
 80013ba:	af00      	add	r7, sp, #0
  return ((READ_BIT(RCC->BDCR, RCC_BDCR_LSERDY) == (RCC_BDCR_LSERDY)) ? 1UL : 0UL);
 80013bc:	f04f 43b0 	mov.w	r3, #1476395008	@ 0x58000000
 80013c0:	f8d3 3090 	ldr.w	r3, [r3, #144]	@ 0x90
 80013c4:	f003 0302 	and.w	r3, r3, #2
 80013c8:	2b02      	cmp	r3, #2
 80013ca:	d101      	bne.n	80013d0 <LL_RCC_LSE_IsReady+0x18>
 80013cc:	2301      	movs	r3, #1
 80013ce:	e000      	b.n	80013d2 <LL_RCC_LSE_IsReady+0x1a>
 80013d0:	2300      	movs	r3, #0
}
 80013d2:	4618      	mov	r0, r3
 80013d4:	46bd      	mov	sp, r7
 80013d6:	f85d 7b04 	ldr.w	r7, [sp], #4
 80013da:	4770      	bx	lr

080013dc <LL_RCC_MSI_GetRange>:
{
 80013dc:	b480      	push	{r7}
 80013de:	b083      	sub	sp, #12
 80013e0:	af00      	add	r7, sp, #0
  uint32_t msiRange = READ_BIT(RCC->CR, RCC_CR_MSIRANGE);
 80013e2:	f04f 43b0 	mov.w	r3, #1476395008	@ 0x58000000
 80013e6:	681b      	ldr	r3, [r3, #0]
 80013e8:	f003 03f0 	and.w	r3, r3, #240	@ 0xf0
 80013ec:	607b      	str	r3, [r7, #4]
  if (msiRange > LL_RCC_MSIRANGE_11)
 80013ee:	687b      	ldr	r3, [r7, #4]
 80013f0:	2bb0      	cmp	r3, #176	@ 0xb0
 80013f2:	d901      	bls.n	80013f8 <LL_RCC_MSI_GetRange+0x1c>
    msiRange = LL_RCC_MSIRANGE_11;
 80013f4:	23b0      	movs	r3, #176	@ 0xb0
 80013f6:	607b      	str	r3, [r7, #4]
  return msiRange;
 80013f8:	687b      	ldr	r3, [r7, #4]
}
 80013fa:	4618      	mov	r0, r3
 80013fc:	370c      	adds	r7, #12
 80013fe:	46bd      	mov	sp, r7
 8001400:	f85d 7b04 	ldr.w	r7, [sp], #4
 8001404:	4770      	bx	lr

08001406 <LL_RCC_GetSysClkSource>:
{
 8001406:	b480      	push	{r7}
 8001408:	af00      	add	r7, sp, #0
  return (uint32_t)(READ_BIT(RCC->CFGR, RCC_CFGR_SWS));
 800140a:	f04f 43b0 	mov.w	r3, #1476395008	@ 0x58000000
 800140e:	689b      	ldr	r3, [r3, #8]
 8001410:	f003 030c 	and.w	r3, r3, #12
}
 8001414:	4618      	mov	r0, r3
 8001416:	46bd      	mov	sp, r7
 8001418:	f85d 7b04 	ldr.w	r7, [sp], #4
 800141c:	4770      	bx	lr

0800141e <LL_RCC_GetAHBPrescaler>:
{
 800141e:	b480      	push	{r7}
 8001420:	af00      	add	r7, sp, #0
  return (uint32_t)(READ_BIT(RCC->CFGR, RCC_CFGR_HPRE));
 8001422:	f04f 43b0 	mov.w	r3, #1476395008	@ 0x58000000
 8001426:	689b      	ldr	r3, [r3, #8]
 8001428:	f003 03f0 	and.w	r3, r3, #240	@ 0xf0
}
 800142c:	4618      	mov	r0, r3
 800142e:	46bd      	mov	sp, r7
 8001430:	f85d 7b04 	ldr.w	r7, [sp], #4
 8001434:	4770      	bx	lr

08001436 <LL_RCC_GetAPB2Prescaler>:
{
 8001436:	b480      	push	{r7}
 8001438:	af00      	add	r7, sp, #0
  return (uint32_t)(READ_BIT(RCC->CFGR, RCC_CFGR_PPRE2));
 800143a:	f04f 43b0 	mov.w	r3, #1476395008	@ 0x58000000
 800143e:	689b      	ldr	r3, [r3, #8]
 8001440:	f403 5360 	and.w	r3, r3, #14336	@ 0x3800
}
 8001444:	4618      	mov	r0, r3
 8001446:	46bd      	mov	sp, r7
 8001448:	f85d 7b04 	ldr.w	r7, [sp], #4
 800144c:	4770      	bx	lr

0800144e <LL_RCC_GetUSARTClockSource>:
{
 800144e:	b480      	push	{r7}
 8001450:	b083      	sub	sp, #12
 8001452:	af00      	add	r7, sp, #0
 8001454:	6078      	str	r0, [r7, #4]
  return (uint32_t)(READ_BIT(RCC->CCIPR, USARTx));
 8001456:	f04f 43b0 	mov.w	r3, #1476395008	@ 0x58000000
 800145a:	f8d3 2088 	ldr.w	r2, [r3, #136]	@ 0x88
 800145e:	687b      	ldr	r3, [r7, #4]
 8001460:	4013      	ands	r3, r2
}
 8001462:	4618      	mov	r0, r3
 8001464:	370c      	adds	r7, #12
 8001466:	46bd      	mov	sp, r7
 8001468:	f85d 7b04 	ldr.w	r7, [sp], #4
 800146c:	4770      	bx	lr

0800146e <LL_RCC_PLL_GetN>:
{
 800146e:	b480      	push	{r7}
 8001470:	af00      	add	r7, sp, #0
  return (uint32_t)(READ_BIT(RCC->PLLCFGR, RCC_PLLCFGR_PLLN) >>  RCC_PLLCFGR_PLLN_Pos);
 8001472:	f04f 43b0 	mov.w	r3, #1476395008	@ 0x58000000
 8001476:	68db      	ldr	r3, [r3, #12]
 8001478:	0a1b      	lsrs	r3, r3, #8
 800147a:	f003 037f 	and.w	r3, r3, #127	@ 0x7f
}
 800147e:	4618      	mov	r0, r3
 8001480:	46bd      	mov	sp, r7
 8001482:	f85d 7b04 	ldr.w	r7, [sp], #4
 8001486:	4770      	bx	lr

08001488 <LL_RCC_PLL_GetR>:
{
 8001488:	b480      	push	{r7}
 800148a:	af00      	add	r7, sp, #0
  return (uint32_t)(READ_BIT(RCC->PLLCFGR, RCC_PLLCFGR_PLLR));
 800148c:	f04f 43b0 	mov.w	r3, #1476395008	@ 0x58000000
 8001490:	68db      	ldr	r3, [r3, #12]
 8001492:	f003 4360 	and.w	r3, r3, #3758096384	@ 0xe0000000
}
 8001496:	4618      	mov	r0, r3
 8001498:	46bd      	mov	sp, r7
 800149a:	f85d 7b04 	ldr.w	r7, [sp], #4
 800149e:	4770      	bx	lr

080014a0 <LL_RCC_PLL_GetDivider>:
{
 80014a0:	b480      	push	{r7}
 80014a2:	af00      	add	r7, sp, #0
  return (uint32_t)(READ_BIT(RCC->PLLCFGR, RCC_PLLCFGR_PLLM));
 80014a4:	f04f 43b0 	mov.w	r3, #1476395008	@ 0x58000000
 80014a8:	68db      	ldr	r3, [r3, #12]
 80014aa:	f003 0370 	and.w	r3, r3, #112	@ 0x70
}
 80014ae:	4618      	mov	r0, r3
 80014b0:	46bd      	mov	sp, r7
 80014b2:	f85d 7b04 	ldr.w	r7, [sp], #4
 80014b6:	4770      	bx	lr

080014b8 <LL_RCC_PLL_GetMainSource>:
  *         @arg @ref LL_RCC_PLLSOURCE_MSI
  *         @arg @ref LL_RCC_PLLSOURCE_HSI
  *         @arg @ref LL_RCC_PLLSOURCE_HSE
  */
__STATIC_INLINE uint32_t LL_RCC_PLL_GetMainSource(void)
{
 80014b8:	b480      	push	{r7}
 80014ba:	af00      	add	r7, sp, #0
  return (uint32_t)(READ_BIT(RCC->PLLCFGR, RCC_PLLCFGR_PLLSRC));
 80014bc:	f04f 43b0 	mov.w	r3, #1476395008	@ 0x58000000
 80014c0:	68db      	ldr	r3, [r3, #12]
 80014c2:	f003 0303 	and.w	r3, r3, #3
}
 80014c6:	4618      	mov	r0, r3
 80014c8:	46bd      	mov	sp, r7
 80014ca:	f85d 7b04 	ldr.w	r7, [sp], #4
 80014ce:	4770      	bx	lr

080014d0 <LL_RCC_GetUSARTClockFreq>:
  *         @arg @ref LL_RCC_USART1_CLKSOURCE
  * @retval USART clock frequency (in Hz)
  *         - @ref  LL_RCC_PERIPH_FREQUENCY_NO indicates that oscillator (HSI or LSE) is not ready
  */
uint32_t LL_RCC_GetUSARTClockFreq(uint32_t USARTxSource)
{
 80014d0:	b580      	push	{r7, lr}
 80014d2:	b084      	sub	sp, #16
 80014d4:	af00      	add	r7, sp, #0
 80014d6:	6078      	str	r0, [r7, #4]
  uint32_t usart_frequency = LL_RCC_PERIPH_FREQUENCY_NO;
 80014d8:	2300      	movs	r3, #0
 80014da:	60fb      	str	r3, [r7, #12]

  /* Check parameter */
  assert_param(IS_LL_RCC_USART_CLKSOURCE(USARTxSource));
 80014dc:	687b      	ldr	r3, [r7, #4]
 80014de:	2b03      	cmp	r3, #3
 80014e0:	d004      	beq.n	80014ec <LL_RCC_GetUSARTClockFreq+0x1c>
 80014e2:	f240 1177 	movw	r1, #375	@ 0x177
 80014e6:	481c      	ldr	r0, [pc, #112]	@ (8001558 <LL_RCC_GetUSARTClockFreq+0x88>)
 80014e8:	f7ff f9f5 	bl	80008d6 <assert_failed>

  /* USART1CLK clock frequency */
  switch (LL_RCC_GetUSARTClockSource(USARTxSource))
 80014ec:	6878      	ldr	r0, [r7, #4]
 80014ee:	f7ff ffae 	bl	800144e <LL_RCC_GetUSARTClockSource>
 80014f2:	4603      	mov	r3, r0
 80014f4:	2b03      	cmp	r3, #3
 80014f6:	d012      	beq.n	800151e <LL_RCC_GetUSARTClockFreq+0x4e>
 80014f8:	2b03      	cmp	r3, #3
 80014fa:	d819      	bhi.n	8001530 <LL_RCC_GetUSARTClockFreq+0x60>
 80014fc:	2b01      	cmp	r3, #1
 80014fe:	d002      	beq.n	8001506 <LL_RCC_GetUSARTClockFreq+0x36>
 8001500:	2b02      	cmp	r3, #2
 8001502:	d004      	beq.n	800150e <LL_RCC_GetUSARTClockFreq+0x3e>
 8001504:	e014      	b.n	8001530 <LL_RCC_GetUSARTClockFreq+0x60>
  {
    case LL_RCC_USART1_CLKSOURCE_SYSCLK: /* USART1 Clock is System Clock */
      usart_frequency = RCC_GetSystemClockFreq();
 8001506:	f000 f82b 	bl	8001560 <RCC_GetSystemClockFreq>
 800150a:	60f8      	str	r0, [r7, #12]
      break;
 800150c:	e01f      	b.n	800154e <LL_RCC_GetUSARTClockFreq+0x7e>

    case LL_RCC_USART1_CLKSOURCE_HSI:    /* USART1 Clock is HSI Osc. */
      if (LL_RCC_HSI_IsReady() == 1U)
 800150e:	f7ff ff41 	bl	8001394 <LL_RCC_HSI_IsReady>
 8001512:	4603      	mov	r3, r0
 8001514:	2b01      	cmp	r3, #1
 8001516:	d117      	bne.n	8001548 <LL_RCC_GetUSARTClockFreq+0x78>
      {
        usart_frequency = HSI_VALUE;
 8001518:	4b10      	ldr	r3, [pc, #64]	@ (800155c <LL_RCC_GetUSARTClockFreq+0x8c>)
 800151a:	60fb      	str	r3, [r7, #12]
      }
      break;
 800151c:	e014      	b.n	8001548 <LL_RCC_GetUSARTClockFreq+0x78>

    case LL_RCC_USART1_CLKSOURCE_LSE:    /* USART1 Clock is LSE Osc. */
      if (LL_RCC_LSE_IsReady() == 1U)
 800151e:	f7ff ff4b 	bl	80013b8 <LL_RCC_LSE_IsReady>
 8001522:	4603      	mov	r3, r0
 8001524:	2b01      	cmp	r3, #1
 8001526:	d111      	bne.n	800154c <LL_RCC_GetUSARTClockFreq+0x7c>
      {
        usart_frequency = LSE_VALUE;
 8001528:	f44f 4300 	mov.w	r3, #32768	@ 0x8000
 800152c:	60fb      	str	r3, [r7, #12]
      }
      break;
 800152e:	e00d      	b.n	800154c <LL_RCC_GetUSARTClockFreq+0x7c>

    case LL_RCC_USART1_CLKSOURCE_PCLK2:  /* USART1 Clock is PCLK2 */
    default:
      usart_frequency = RCC_GetPCLK2ClockFreq(RCC_GetHCLK1ClockFreq(RCC_GetSystemClockFreq()));
 8001530:	f000 f816 	bl	8001560 <RCC_GetSystemClockFreq>
 8001534:	4603      	mov	r3, r0
 8001536:	4618      	mov	r0, r3
 8001538:	f000 f86c 	bl	8001614 <RCC_GetHCLK1ClockFreq>
 800153c:	4603      	mov	r3, r0
 800153e:	4618      	mov	r0, r3
 8001540:	f000 f87e 	bl	8001640 <RCC_GetPCLK2ClockFreq>
 8001544:	60f8      	str	r0, [r7, #12]
      break;
 8001546:	e002      	b.n	800154e <LL_RCC_GetUSARTClockFreq+0x7e>
      break;
 8001548:	bf00      	nop
 800154a:	e000      	b.n	800154e <LL_RCC_GetUSARTClockFreq+0x7e>
      break;
 800154c:	bf00      	nop
  }
  return usart_frequency;
 800154e:	68fb      	ldr	r3, [r7, #12]
}
 8001550:	4618      	mov	r0, r3
 8001552:	3710      	adds	r7, #16
 8001554:	46bd      	mov	sp, r7
 8001556:	bd80      	pop	{r7, pc}
 8001558:	08001bac 	.word	0x08001bac
 800155c:	00f42400 	.word	0x00f42400

08001560 <RCC_GetSystemClockFreq>:
/**
  * @brief  Return SYSTEM clock (SYSCLK) frequency
  * @retval SYSTEM clock frequency (in Hz)
  */
static uint32_t RCC_GetSystemClockFreq(void)
{
 8001560:	b580      	push	{r7, lr}
 8001562:	b082      	sub	sp, #8
 8001564:	af00      	add	r7, sp, #0
  uint32_t frequency;

  /* Get SYSCLK source -------------------------------------------------------*/
  switch (LL_RCC_GetSysClkSource())
 8001566:	f7ff ff4e 	bl	8001406 <LL_RCC_GetSysClkSource>
 800156a:	4603      	mov	r3, r0
 800156c:	2b0c      	cmp	r3, #12
 800156e:	d83a      	bhi.n	80015e6 <RCC_GetSystemClockFreq+0x86>
 8001570:	a201      	add	r2, pc, #4	@ (adr r2, 8001578 <RCC_GetSystemClockFreq+0x18>)
 8001572:	f852 f023 	ldr.w	pc, [r2, r3, lsl #2]
 8001576:	bf00      	nop
 8001578:	080015ad 	.word	0x080015ad
 800157c:	080015e7 	.word	0x080015e7
 8001580:	080015e7 	.word	0x080015e7
 8001584:	080015e7 	.word	0x080015e7
 8001588:	080015c3 	.word	0x080015c3
 800158c:	080015e7 	.word	0x080015e7
 8001590:	080015e7 	.word	0x080015e7
 8001594:	080015e7 	.word	0x080015e7
 8001598:	080015c9 	.word	0x080015c9
 800159c:	080015e7 	.word	0x080015e7
 80015a0:	080015e7 	.word	0x080015e7
 80015a4:	080015e7 	.word	0x080015e7
 80015a8:	080015df 	.word	0x080015df
  {
    case LL_RCC_SYS_CLKSOURCE_STATUS_MSI:  /* MSI used as system clock source */
      frequency = __LL_RCC_CALC_MSI_FREQ(LL_RCC_MSI_GetRange());
 80015ac:	f7ff ff16 	bl	80013dc <LL_RCC_MSI_GetRange>
 80015b0:	4603      	mov	r3, r0
 80015b2:	091b      	lsrs	r3, r3, #4
 80015b4:	f003 030f 	and.w	r3, r3, #15
 80015b8:	4a13      	ldr	r2, [pc, #76]	@ (8001608 <RCC_GetSystemClockFreq+0xa8>)
 80015ba:	f852 3023 	ldr.w	r3, [r2, r3, lsl #2]
 80015be:	607b      	str	r3, [r7, #4]
      break;
 80015c0:	e01c      	b.n	80015fc <RCC_GetSystemClockFreq+0x9c>

    case LL_RCC_SYS_CLKSOURCE_STATUS_HSI:  /* HSI used as system clock  source */
      frequency = HSI_VALUE;
 80015c2:	4b12      	ldr	r3, [pc, #72]	@ (800160c <RCC_GetSystemClockFreq+0xac>)
 80015c4:	607b      	str	r3, [r7, #4]
      break;
 80015c6:	e019      	b.n	80015fc <RCC_GetSystemClockFreq+0x9c>

    case LL_RCC_SYS_CLKSOURCE_STATUS_HSE:  /* HSE used as system clock  source */
      if (LL_RCC_HSE_IsEnabledDiv2() == 1U)
 80015c8:	f7ff fed2 	bl	8001370 <LL_RCC_HSE_IsEnabledDiv2>
 80015cc:	4603      	mov	r3, r0
 80015ce:	2b01      	cmp	r3, #1
 80015d0:	d102      	bne.n	80015d8 <RCC_GetSystemClockFreq+0x78>
      {
        frequency = HSE_VALUE / 2U;
 80015d2:	4b0e      	ldr	r3, [pc, #56]	@ (800160c <RCC_GetSystemClockFreq+0xac>)
 80015d4:	607b      	str	r3, [r7, #4]
      }
      else
      {
        frequency = HSE_VALUE;
      }
      break;
 80015d6:	e011      	b.n	80015fc <RCC_GetSystemClockFreq+0x9c>
        frequency = HSE_VALUE;
 80015d8:	4b0d      	ldr	r3, [pc, #52]	@ (8001610 <RCC_GetSystemClockFreq+0xb0>)
 80015da:	607b      	str	r3, [r7, #4]
      break;
 80015dc:	e00e      	b.n	80015fc <RCC_GetSystemClockFreq+0x9c>

    case LL_RCC_SYS_CLKSOURCE_STATUS_PLL:  /* PLL used as system clock  source */
      frequency = RCC_PLL_GetFreqDomain_SYS();
 80015de:	f000 f847 	bl	8001670 <RCC_PLL_GetFreqDomain_SYS>
 80015e2:	6078      	str	r0, [r7, #4]
      break;
 80015e4:	e00a      	b.n	80015fc <RCC_GetSystemClockFreq+0x9c>

    default:
      frequency = __LL_RCC_CALC_MSI_FREQ(LL_RCC_MSI_GetRange());
 80015e6:	f7ff fef9 	bl	80013dc <LL_RCC_MSI_GetRange>
 80015ea:	4603      	mov	r3, r0
 80015ec:	091b      	lsrs	r3, r3, #4
 80015ee:	f003 030f 	and.w	r3, r3, #15
 80015f2:	4a05      	ldr	r2, [pc, #20]	@ (8001608 <RCC_GetSystemClockFreq+0xa8>)
 80015f4:	f852 3023 	ldr.w	r3, [r2, r3, lsl #2]
 80015f8:	607b      	str	r3, [r7, #4]
      break;
 80015fa:	bf00      	nop
  }

  return frequency;
 80015fc:	687b      	ldr	r3, [r7, #4]
}
 80015fe:	4618      	mov	r0, r3
 8001600:	3708      	adds	r7, #8
 8001602:	46bd      	mov	sp, r7
 8001604:	bd80      	pop	{r7, pc}
 8001606:	bf00      	nop
 8001608:	08001c80 	.word	0x08001c80
 800160c:	00f42400 	.word	0x00f42400
 8001610:	01e84800 	.word	0x01e84800

08001614 <RCC_GetHCLK1ClockFreq>:
  * @brief  Return HCLK1 clock frequency
  * @param  SYSCLK_Frequency SYSCLK clock frequency
  * @retval HCLK1 clock frequency (in Hz)
  */
static uint32_t RCC_GetHCLK1ClockFreq(uint32_t SYSCLK_Frequency)
{
 8001614:	b580      	push	{r7, lr}
 8001616:	b082      	sub	sp, #8
 8001618:	af00      	add	r7, sp, #0
 800161a:	6078      	str	r0, [r7, #4]
  /* HCLK clock frequency */
  return __LL_RCC_CALC_HCLK1_FREQ(SYSCLK_Frequency, LL_RCC_GetAHBPrescaler());
 800161c:	f7ff feff 	bl	800141e <LL_RCC_GetAHBPrescaler>
 8001620:	4603      	mov	r3, r0
 8001622:	091b      	lsrs	r3, r3, #4
 8001624:	f003 030f 	and.w	r3, r3, #15
 8001628:	4a04      	ldr	r2, [pc, #16]	@ (800163c <RCC_GetHCLK1ClockFreq+0x28>)
 800162a:	f852 3023 	ldr.w	r3, [r2, r3, lsl #2]
 800162e:	687a      	ldr	r2, [r7, #4]
 8001630:	fbb2 f3f3 	udiv	r3, r2, r3
}
 8001634:	4618      	mov	r0, r3
 8001636:	3708      	adds	r7, #8
 8001638:	46bd      	mov	sp, r7
 800163a:	bd80      	pop	{r7, pc}
 800163c:	08001c20 	.word	0x08001c20

08001640 <RCC_GetPCLK2ClockFreq>:
  * @brief  Return PCLK2 clock frequency
  * @param  HCLK_Frequency HCLK clock frequency
  * @retval PCLK2 clock frequency (in Hz)
  */
static uint32_t RCC_GetPCLK2ClockFreq(uint32_t HCLK_Frequency)
{
 8001640:	b580      	push	{r7, lr}
 8001642:	b082      	sub	sp, #8
 8001644:	af00      	add	r7, sp, #0
 8001646:	6078      	str	r0, [r7, #4]
  /* PCLK2 clock frequency */
  return __LL_RCC_CALC_PCLK2_FREQ(HCLK_Frequency, LL_RCC_GetAPB2Prescaler());
 8001648:	f7ff fef5 	bl	8001436 <LL_RCC_GetAPB2Prescaler>
 800164c:	4603      	mov	r3, r0
 800164e:	0adb      	lsrs	r3, r3, #11
 8001650:	f003 0307 	and.w	r3, r3, #7
 8001654:	4a05      	ldr	r2, [pc, #20]	@ (800166c <RCC_GetPCLK2ClockFreq+0x2c>)
 8001656:	f852 3023 	ldr.w	r3, [r2, r3, lsl #2]
 800165a:	f003 031f 	and.w	r3, r3, #31
 800165e:	687a      	ldr	r2, [r7, #4]
 8001660:	fa22 f303 	lsr.w	r3, r2, r3
}
 8001664:	4618      	mov	r0, r3
 8001666:	3708      	adds	r7, #8
 8001668:	46bd      	mov	sp, r7
 800166a:	bd80      	pop	{r7, pc}
 800166c:	08001c60 	.word	0x08001c60

08001670 <RCC_PLL_GetFreqDomain_SYS>:
/**
  * @brief  Return PLL clock (PLLRCLK) frequency used for system domain
  * @retval PLLRCLK clock frequency (in Hz)
  */
static uint32_t RCC_PLL_GetFreqDomain_SYS(void)
{
 8001670:	b590      	push	{r4, r7, lr}
 8001672:	b083      	sub	sp, #12
 8001674:	af00      	add	r7, sp, #0
  uint32_t pllsource;

  /* PLL_VCO = (HSE_VALUE or HSI_VALUE or MSI Value/ PLLM) * PLLN
     SYSCLK = PLL_VCO / PLLR
  */
  pllsource = LL_RCC_PLL_GetMainSource();
 8001676:	f7ff ff1f 	bl	80014b8 <LL_RCC_PLL_GetMainSource>
 800167a:	6038      	str	r0, [r7, #0]

  switch (pllsource)
 800167c:	683b      	ldr	r3, [r7, #0]
 800167e:	2b03      	cmp	r3, #3
 8001680:	d017      	beq.n	80016b2 <RCC_PLL_GetFreqDomain_SYS+0x42>
 8001682:	683b      	ldr	r3, [r7, #0]
 8001684:	2b03      	cmp	r3, #3
 8001686:	d81f      	bhi.n	80016c8 <RCC_PLL_GetFreqDomain_SYS+0x58>
 8001688:	683b      	ldr	r3, [r7, #0]
 800168a:	2b01      	cmp	r3, #1
 800168c:	d003      	beq.n	8001696 <RCC_PLL_GetFreqDomain_SYS+0x26>
 800168e:	683b      	ldr	r3, [r7, #0]
 8001690:	2b02      	cmp	r3, #2
 8001692:	d00b      	beq.n	80016ac <RCC_PLL_GetFreqDomain_SYS+0x3c>
 8001694:	e018      	b.n	80016c8 <RCC_PLL_GetFreqDomain_SYS+0x58>
  {
    case LL_RCC_PLLSOURCE_MSI:  /* MSI used as PLL clock source */
      pllinputfreq = __LL_RCC_CALC_MSI_FREQ(LL_RCC_MSI_GetRange());
 8001696:	f7ff fea1 	bl	80013dc <LL_RCC_MSI_GetRange>
 800169a:	4603      	mov	r3, r0
 800169c:	091b      	lsrs	r3, r3, #4
 800169e:	f003 030f 	and.w	r3, r3, #15
 80016a2:	4a1b      	ldr	r2, [pc, #108]	@ (8001710 <RCC_PLL_GetFreqDomain_SYS+0xa0>)
 80016a4:	f852 3023 	ldr.w	r3, [r2, r3, lsl #2]
 80016a8:	607b      	str	r3, [r7, #4]
      break;
 80016aa:	e018      	b.n	80016de <RCC_PLL_GetFreqDomain_SYS+0x6e>

    case LL_RCC_PLLSOURCE_HSI:  /* HSI used as PLL clock source */
      pllinputfreq = HSI_VALUE;
 80016ac:	4b19      	ldr	r3, [pc, #100]	@ (8001714 <RCC_PLL_GetFreqDomain_SYS+0xa4>)
 80016ae:	607b      	str	r3, [r7, #4]
      break;
 80016b0:	e015      	b.n	80016de <RCC_PLL_GetFreqDomain_SYS+0x6e>

    case LL_RCC_PLLSOURCE_HSE:  /* HSE used as PLL clock source */
      if (LL_RCC_HSE_IsEnabledDiv2() == 1U)
 80016b2:	f7ff fe5d 	bl	8001370 <LL_RCC_HSE_IsEnabledDiv2>
 80016b6:	4603      	mov	r3, r0
 80016b8:	2b01      	cmp	r3, #1
 80016ba:	d102      	bne.n	80016c2 <RCC_PLL_GetFreqDomain_SYS+0x52>
      {
        pllinputfreq = HSE_VALUE / 2U;
 80016bc:	4b15      	ldr	r3, [pc, #84]	@ (8001714 <RCC_PLL_GetFreqDomain_SYS+0xa4>)
 80016be:	607b      	str	r3, [r7, #4]
      }
      else
      {
        pllinputfreq = HSE_VALUE;
      }
      break;
 80016c0:	e00d      	b.n	80016de <RCC_PLL_GetFreqDomain_SYS+0x6e>
        pllinputfreq = HSE_VALUE;
 80016c2:	4b15      	ldr	r3, [pc, #84]	@ (8001718 <RCC_PLL_GetFreqDomain_SYS+0xa8>)
 80016c4:	607b      	str	r3, [r7, #4]
      break;
 80016c6:	e00a      	b.n	80016de <RCC_PLL_GetFreqDomain_SYS+0x6e>

    default:
      pllinputfreq = __LL_RCC_CALC_MSI_FREQ(LL_RCC_MSI_GetRange());
 80016c8:	f7ff fe88 	bl	80013dc <LL_RCC_MSI_GetRange>
 80016cc:	4603      	mov	r3, r0
 80016ce:	091b      	lsrs	r3, r3, #4
 80016d0:	f003 030f 	and.w	r3, r3, #15
 80016d4:	4a0e      	ldr	r2, [pc, #56]	@ (8001710 <RCC_PLL_GetFreqDomain_SYS+0xa0>)
 80016d6:	f852 3023 	ldr.w	r3, [r2, r3, lsl #2]
 80016da:	607b      	str	r3, [r7, #4]
      break;
 80016dc:	bf00      	nop
  }
  return __LL_RCC_CALC_PLLCLK_FREQ(pllinputfreq, LL_RCC_PLL_GetDivider(),
 80016de:	f7ff fec6 	bl	800146e <LL_RCC_PLL_GetN>
 80016e2:	4602      	mov	r2, r0
 80016e4:	687b      	ldr	r3, [r7, #4]
 80016e6:	fb03 f402 	mul.w	r4, r3, r2
 80016ea:	f7ff fed9 	bl	80014a0 <LL_RCC_PLL_GetDivider>
 80016ee:	4603      	mov	r3, r0
 80016f0:	091b      	lsrs	r3, r3, #4
 80016f2:	3301      	adds	r3, #1
 80016f4:	fbb4 f4f3 	udiv	r4, r4, r3
 80016f8:	f7ff fec6 	bl	8001488 <LL_RCC_PLL_GetR>
 80016fc:	4603      	mov	r3, r0
 80016fe:	0f5b      	lsrs	r3, r3, #29
 8001700:	3301      	adds	r3, #1
 8001702:	fbb4 f3f3 	udiv	r3, r4, r3
                                   LL_RCC_PLL_GetN(), LL_RCC_PLL_GetR());
}
 8001706:	4618      	mov	r0, r3
 8001708:	370c      	adds	r7, #12
 800170a:	46bd      	mov	sp, r7
 800170c:	bd90      	pop	{r4, r7, pc}
 800170e:	bf00      	nop
 8001710:	08001c80 	.word	0x08001c80
 8001714:	00f42400 	.word	0x00f42400
 8001718:	01e84800 	.word	0x01e84800

0800171c <LL_USART_IsEnabled>:
{
 800171c:	b480      	push	{r7}
 800171e:	b083      	sub	sp, #12
 8001720:	af00      	add	r7, sp, #0
 8001722:	6078      	str	r0, [r7, #4]
  return ((READ_BIT(USARTx->CR1, USART_CR1_UE) == (USART_CR1_UE)) ? 1UL : 0UL);
 8001724:	687b      	ldr	r3, [r7, #4]
 8001726:	681b      	ldr	r3, [r3, #0]
 8001728:	f003 0301 	and.w	r3, r3, #1
 800172c:	2b01      	cmp	r3, #1
 800172e:	d101      	bne.n	8001734 <LL_USART_IsEnabled+0x18>
 8001730:	2301      	movs	r3, #1
 8001732:	e000      	b.n	8001736 <LL_USART_IsEnabled+0x1a>
 8001734:	2300      	movs	r3, #0
}
 8001736:	4618      	mov	r0, r3
 8001738:	370c      	adds	r7, #12
 800173a:	46bd      	mov	sp, r7
 800173c:	f85d 7b04 	ldr.w	r7, [sp], #4
 8001740:	4770      	bx	lr

08001742 <LL_USART_SetPrescaler>:
{
 8001742:	b480      	push	{r7}
 8001744:	b083      	sub	sp, #12
 8001746:	af00      	add	r7, sp, #0
 8001748:	6078      	str	r0, [r7, #4]
 800174a:	6039      	str	r1, [r7, #0]
  MODIFY_REG(USARTx->PRESC, USART_PRESC_PRESCALER, (uint16_t)PrescalerValue);
 800174c:	687b      	ldr	r3, [r7, #4]
 800174e:	6adb      	ldr	r3, [r3, #44]	@ 0x2c
 8001750:	f023 030f 	bic.w	r3, r3, #15
 8001754:	683a      	ldr	r2, [r7, #0]
 8001756:	b292      	uxth	r2, r2
 8001758:	431a      	orrs	r2, r3
 800175a:	687b      	ldr	r3, [r7, #4]
 800175c:	62da      	str	r2, [r3, #44]	@ 0x2c
}
 800175e:	bf00      	nop
 8001760:	370c      	adds	r7, #12
 8001762:	46bd      	mov	sp, r7
 8001764:	f85d 7b04 	ldr.w	r7, [sp], #4
 8001768:	4770      	bx	lr

0800176a <LL_USART_SetStopBitsLength>:
{
 800176a:	b480      	push	{r7}
 800176c:	b083      	sub	sp, #12
 800176e:	af00      	add	r7, sp, #0
 8001770:	6078      	str	r0, [r7, #4]
 8001772:	6039      	str	r1, [r7, #0]
  MODIFY_REG(USARTx->CR2, USART_CR2_STOP, StopBits);
 8001774:	687b      	ldr	r3, [r7, #4]
 8001776:	685b      	ldr	r3, [r3, #4]
 8001778:	f423 5240 	bic.w	r2, r3, #12288	@ 0x3000
 800177c:	683b      	ldr	r3, [r7, #0]
 800177e:	431a      	orrs	r2, r3
 8001780:	687b      	ldr	r3, [r7, #4]
 8001782:	605a      	str	r2, [r3, #4]
}
 8001784:	bf00      	nop
 8001786:	370c      	adds	r7, #12
 8001788:	46bd      	mov	sp, r7
 800178a:	f85d 7b04 	ldr.w	r7, [sp], #4
 800178e:	4770      	bx	lr

08001790 <LL_USART_SetHWFlowCtrl>:
{
 8001790:	b480      	push	{r7}
 8001792:	b083      	sub	sp, #12
 8001794:	af00      	add	r7, sp, #0
 8001796:	6078      	str	r0, [r7, #4]
 8001798:	6039      	str	r1, [r7, #0]
  MODIFY_REG(USARTx->CR3, USART_CR3_RTSE | USART_CR3_CTSE, HardwareFlowControl);
 800179a:	687b      	ldr	r3, [r7, #4]
 800179c:	689b      	ldr	r3, [r3, #8]
 800179e:	f423 7240 	bic.w	r2, r3, #768	@ 0x300
 80017a2:	683b      	ldr	r3, [r7, #0]
 80017a4:	431a      	orrs	r2, r3
 80017a6:	687b      	ldr	r3, [r7, #4]
 80017a8:	609a      	str	r2, [r3, #8]
}
 80017aa:	bf00      	nop
 80017ac:	370c      	adds	r7, #12
 80017ae:	46bd      	mov	sp, r7
 80017b0:	f85d 7b04 	ldr.w	r7, [sp], #4
 80017b4:	4770      	bx	lr
	...

080017b8 <LL_USART_SetBaudRate>:
{
 80017b8:	b480      	push	{r7}
 80017ba:	b087      	sub	sp, #28
 80017bc:	af00      	add	r7, sp, #0
 80017be:	60f8      	str	r0, [r7, #12]
 80017c0:	60b9      	str	r1, [r7, #8]
 80017c2:	607a      	str	r2, [r7, #4]
 80017c4:	603b      	str	r3, [r7, #0]
  if (PrescalerValue > LL_USART_PRESCALER_DIV256)
 80017c6:	687b      	ldr	r3, [r7, #4]
 80017c8:	2b0b      	cmp	r3, #11
 80017ca:	d83c      	bhi.n	8001846 <LL_USART_SetBaudRate+0x8e>
  else if (BaudRate == 0U)
 80017cc:	6a3b      	ldr	r3, [r7, #32]
 80017ce:	2b00      	cmp	r3, #0
 80017d0:	d039      	beq.n	8001846 <LL_USART_SetBaudRate+0x8e>
  else if (OverSampling == LL_USART_OVERSAMPLING_8)
 80017d2:	683b      	ldr	r3, [r7, #0]
 80017d4:	f5b3 4f00 	cmp.w	r3, #32768	@ 0x8000
 80017d8:	d122      	bne.n	8001820 <LL_USART_SetBaudRate+0x68>
    usartdiv = (uint16_t)(__LL_USART_DIV_SAMPLING8(PeriphClk, (uint8_t)PrescalerValue, BaudRate));
 80017da:	687b      	ldr	r3, [r7, #4]
 80017dc:	b2db      	uxtb	r3, r3
 80017de:	461a      	mov	r2, r3
 80017e0:	4b1c      	ldr	r3, [pc, #112]	@ (8001854 <LL_USART_SetBaudRate+0x9c>)
 80017e2:	f853 3022 	ldr.w	r3, [r3, r2, lsl #2]
 80017e6:	68ba      	ldr	r2, [r7, #8]
 80017e8:	fbb2 f3f3 	udiv	r3, r2, r3
 80017ec:	005a      	lsls	r2, r3, #1
 80017ee:	6a3b      	ldr	r3, [r7, #32]
 80017f0:	085b      	lsrs	r3, r3, #1
 80017f2:	441a      	add	r2, r3
 80017f4:	6a3b      	ldr	r3, [r7, #32]
 80017f6:	fbb2 f3f3 	udiv	r3, r2, r3
 80017fa:	b29b      	uxth	r3, r3
 80017fc:	617b      	str	r3, [r7, #20]
    brrtemp = usartdiv & 0xFFF0U;
 80017fe:	697a      	ldr	r2, [r7, #20]
 8001800:	f64f 73f0 	movw	r3, #65520	@ 0xfff0
 8001804:	4013      	ands	r3, r2
 8001806:	613b      	str	r3, [r7, #16]
    brrtemp |= (uint16_t)((usartdiv & (uint16_t)0x000FU) >> 1U);
 8001808:	697b      	ldr	r3, [r7, #20]
 800180a:	085b      	lsrs	r3, r3, #1
 800180c:	b29b      	uxth	r3, r3
 800180e:	f003 0307 	and.w	r3, r3, #7
 8001812:	693a      	ldr	r2, [r7, #16]
 8001814:	4313      	orrs	r3, r2
 8001816:	613b      	str	r3, [r7, #16]
    USARTx->BRR = brrtemp;
 8001818:	68fb      	ldr	r3, [r7, #12]
 800181a:	693a      	ldr	r2, [r7, #16]
 800181c:	60da      	str	r2, [r3, #12]
}
 800181e:	e012      	b.n	8001846 <LL_USART_SetBaudRate+0x8e>
    USARTx->BRR = (uint16_t)(__LL_USART_DIV_SAMPLING16(PeriphClk, (uint8_t)PrescalerValue, BaudRate));
 8001820:	687b      	ldr	r3, [r7, #4]
 8001822:	b2db      	uxtb	r3, r3
 8001824:	461a      	mov	r2, r3
 8001826:	4b0b      	ldr	r3, [pc, #44]	@ (8001854 <LL_USART_SetBaudRate+0x9c>)
 8001828:	f853 3022 	ldr.w	r3, [r3, r2, lsl #2]
 800182c:	68ba      	ldr	r2, [r7, #8]
 800182e:	fbb2 f2f3 	udiv	r2, r2, r3
 8001832:	6a3b      	ldr	r3, [r7, #32]
 8001834:	085b      	lsrs	r3, r3, #1
 8001836:	441a      	add	r2, r3
 8001838:	6a3b      	ldr	r3, [r7, #32]
 800183a:	fbb2 f3f3 	udiv	r3, r2, r3
 800183e:	b29b      	uxth	r3, r3
 8001840:	461a      	mov	r2, r3
 8001842:	68fb      	ldr	r3, [r7, #12]
 8001844:	60da      	str	r2, [r3, #12]
}
 8001846:	bf00      	nop
 8001848:	371c      	adds	r7, #28
 800184a:	46bd      	mov	sp, r7
 800184c:	f85d 7b04 	ldr.w	r7, [sp], #4
 8001850:	4770      	bx	lr
 8001852:	bf00      	nop
 8001854:	08001cc0 	.word	0x08001cc0

08001858 <LL_USART_Init>:
  * @retval An ErrorStatus enumeration value:
  *          - SUCCESS: USART registers are initialized according to USART_InitStruct content
  *          - ERROR: Problem occurred during USART Registers initialization
  */
ErrorStatus LL_USART_Init(USART_TypeDef *USARTx, const LL_USART_InitTypeDef *USART_InitStruct)
{
 8001858:	b580      	push	{r7, lr}
 800185a:	b086      	sub	sp, #24
 800185c:	af02      	add	r7, sp, #8
 800185e:	6078      	str	r0, [r7, #4]
 8001860:	6039      	str	r1, [r7, #0]
  ErrorStatus status = ERROR;
 8001862:	2301      	movs	r3, #1
 8001864:	73fb      	strb	r3, [r7, #15]
  uint32_t periphclk = LL_RCC_PERIPH_FREQUENCY_NO;
 8001866:	2300      	movs	r3, #0
 8001868:	60bb      	str	r3, [r7, #8]

  /* Check the parameters */
  assert_param(IS_UART_INSTANCE(USARTx));
 800186a:	687b      	ldr	r3, [r7, #4]
 800186c:	4a85      	ldr	r2, [pc, #532]	@ (8001a84 <LL_USART_Init+0x22c>)
 800186e:	4293      	cmp	r3, r2
 8001870:	d003      	beq.n	800187a <LL_USART_Init+0x22>
 8001872:	21b6      	movs	r1, #182	@ 0xb6
 8001874:	4884      	ldr	r0, [pc, #528]	@ (8001a88 <LL_USART_Init+0x230>)
 8001876:	f7ff f82e 	bl	80008d6 <assert_failed>
  assert_param(IS_LL_USART_PRESCALER(USART_InitStruct->PrescalerValue));
 800187a:	683b      	ldr	r3, [r7, #0]
 800187c:	681b      	ldr	r3, [r3, #0]
 800187e:	2b00      	cmp	r3, #0
 8001880:	d02f      	beq.n	80018e2 <LL_USART_Init+0x8a>
 8001882:	683b      	ldr	r3, [r7, #0]
 8001884:	681b      	ldr	r3, [r3, #0]
 8001886:	2b01      	cmp	r3, #1
 8001888:	d02b      	beq.n	80018e2 <LL_USART_Init+0x8a>
 800188a:	683b      	ldr	r3, [r7, #0]
 800188c:	681b      	ldr	r3, [r3, #0]
 800188e:	2b02      	cmp	r3, #2
 8001890:	d027      	beq.n	80018e2 <LL_USART_Init+0x8a>
 8001892:	683b      	ldr	r3, [r7, #0]
 8001894:	681b      	ldr	r3, [r3, #0]
 8001896:	2b03      	cmp	r3, #3
 8001898:	d023      	beq.n	80018e2 <LL_USART_Init+0x8a>
 800189a:	683b      	ldr	r3, [r7, #0]
 800189c:	681b      	ldr	r3, [r3, #0]
 800189e:	2b04      	cmp	r3, #4
 80018a0:	d01f      	beq.n	80018e2 <LL_USART_Init+0x8a>
 80018a2:	683b      	ldr	r3, [r7, #0]
 80018a4:	681b      	ldr	r3, [r3, #0]
 80018a6:	2b05      	cmp	r3, #5
 80018a8:	d01b      	beq.n	80018e2 <LL_USART_Init+0x8a>
 80018aa:	683b      	ldr	r3, [r7, #0]
 80018ac:	681b      	ldr	r3, [r3, #0]
 80018ae:	2b06      	cmp	r3, #6
 80018b0:	d017      	beq.n	80018e2 <LL_USART_Init+0x8a>
 80018b2:	683b      	ldr	r3, [r7, #0]
 80018b4:	681b      	ldr	r3, [r3, #0]
 80018b6:	2b07      	cmp	r3, #7
 80018b8:	d013      	beq.n	80018e2 <LL_USART_Init+0x8a>
 80018ba:	683b      	ldr	r3, [r7, #0]
 80018bc:	681b      	ldr	r3, [r3, #0]
 80018be:	2b08      	cmp	r3, #8
 80018c0:	d00f      	beq.n	80018e2 <LL_USART_Init+0x8a>
 80018c2:	683b      	ldr	r3, [r7, #0]
 80018c4:	681b      	ldr	r3, [r3, #0]
 80018c6:	2b09      	cmp	r3, #9
 80018c8:	d00b      	beq.n	80018e2 <LL_USART_Init+0x8a>
 80018ca:	683b      	ldr	r3, [r7, #0]
 80018cc:	681b      	ldr	r3, [r3, #0]
 80018ce:	2b0a      	cmp	r3, #10
 80018d0:	d007      	beq.n	80018e2 <LL_USART_Init+0x8a>
 80018d2:	683b      	ldr	r3, [r7, #0]
 80018d4:	681b      	ldr	r3, [r3, #0]
 80018d6:	2b0b      	cmp	r3, #11
 80018d8:	d003      	beq.n	80018e2 <LL_USART_Init+0x8a>
 80018da:	21b7      	movs	r1, #183	@ 0xb7
 80018dc:	486a      	ldr	r0, [pc, #424]	@ (8001a88 <LL_USART_Init+0x230>)
 80018de:	f7fe fffa 	bl	80008d6 <assert_failed>
  assert_param(IS_LL_USART_BAUDRATE(USART_InitStruct->BaudRate));
 80018e2:	683b      	ldr	r3, [r7, #0]
 80018e4:	685b      	ldr	r3, [r3, #4]
 80018e6:	4a69      	ldr	r2, [pc, #420]	@ (8001a8c <LL_USART_Init+0x234>)
 80018e8:	4293      	cmp	r3, r2
 80018ea:	d903      	bls.n	80018f4 <LL_USART_Init+0x9c>
 80018ec:	21b8      	movs	r1, #184	@ 0xb8
 80018ee:	4866      	ldr	r0, [pc, #408]	@ (8001a88 <LL_USART_Init+0x230>)
 80018f0:	f7fe fff1 	bl	80008d6 <assert_failed>
  assert_param(IS_LL_USART_DATAWIDTH(USART_InitStruct->DataWidth));
 80018f4:	683b      	ldr	r3, [r7, #0]
 80018f6:	689b      	ldr	r3, [r3, #8]
 80018f8:	f1b3 5f80 	cmp.w	r3, #268435456	@ 0x10000000
 80018fc:	d00c      	beq.n	8001918 <LL_USART_Init+0xc0>
 80018fe:	683b      	ldr	r3, [r7, #0]
 8001900:	689b      	ldr	r3, [r3, #8]
 8001902:	2b00      	cmp	r3, #0
 8001904:	d008      	beq.n	8001918 <LL_USART_Init+0xc0>
 8001906:	683b      	ldr	r3, [r7, #0]
 8001908:	689b      	ldr	r3, [r3, #8]
 800190a:	f5b3 5f80 	cmp.w	r3, #4096	@ 0x1000
 800190e:	d003      	beq.n	8001918 <LL_USART_Init+0xc0>
 8001910:	21b9      	movs	r1, #185	@ 0xb9
 8001912:	485d      	ldr	r0, [pc, #372]	@ (8001a88 <LL_USART_Init+0x230>)
 8001914:	f7fe ffdf 	bl	80008d6 <assert_failed>
  assert_param(IS_LL_USART_STOPBITS(USART_InitStruct->StopBits));
 8001918:	683b      	ldr	r3, [r7, #0]
 800191a:	68db      	ldr	r3, [r3, #12]
 800191c:	f5b3 5f80 	cmp.w	r3, #4096	@ 0x1000
 8001920:	d011      	beq.n	8001946 <LL_USART_Init+0xee>
 8001922:	683b      	ldr	r3, [r7, #0]
 8001924:	68db      	ldr	r3, [r3, #12]
 8001926:	2b00      	cmp	r3, #0
 8001928:	d00d      	beq.n	8001946 <LL_USART_Init+0xee>
 800192a:	683b      	ldr	r3, [r7, #0]
 800192c:	68db      	ldr	r3, [r3, #12]
 800192e:	f5b3 5f40 	cmp.w	r3, #12288	@ 0x3000
 8001932:	d008      	beq.n	8001946 <LL_USART_Init+0xee>
 8001934:	683b      	ldr	r3, [r7, #0]
 8001936:	68db      	ldr	r3, [r3, #12]
 8001938:	f5b3 5f00 	cmp.w	r3, #8192	@ 0x2000
 800193c:	d003      	beq.n	8001946 <LL_USART_Init+0xee>
 800193e:	21ba      	movs	r1, #186	@ 0xba
 8001940:	4851      	ldr	r0, [pc, #324]	@ (8001a88 <LL_USART_Init+0x230>)
 8001942:	f7fe ffc8 	bl	80008d6 <assert_failed>
  assert_param(IS_LL_USART_PARITY(USART_InitStruct->Parity));
 8001946:	683b      	ldr	r3, [r7, #0]
 8001948:	691b      	ldr	r3, [r3, #16]
 800194a:	2b00      	cmp	r3, #0
 800194c:	d00d      	beq.n	800196a <LL_USART_Init+0x112>
 800194e:	683b      	ldr	r3, [r7, #0]
 8001950:	691b      	ldr	r3, [r3, #16]
 8001952:	f5b3 6f80 	cmp.w	r3, #1024	@ 0x400
 8001956:	d008      	beq.n	800196a <LL_USART_Init+0x112>
 8001958:	683b      	ldr	r3, [r7, #0]
 800195a:	691b      	ldr	r3, [r3, #16]
 800195c:	f5b3 6fc0 	cmp.w	r3, #1536	@ 0x600
 8001960:	d003      	beq.n	800196a <LL_USART_Init+0x112>
 8001962:	21bb      	movs	r1, #187	@ 0xbb
 8001964:	4848      	ldr	r0, [pc, #288]	@ (8001a88 <LL_USART_Init+0x230>)
 8001966:	f7fe ffb6 	bl	80008d6 <assert_failed>
  assert_param(IS_LL_USART_DIRECTION(USART_InitStruct->TransferDirection));
 800196a:	683b      	ldr	r3, [r7, #0]
 800196c:	695b      	ldr	r3, [r3, #20]
 800196e:	2b00      	cmp	r3, #0
 8001970:	d00f      	beq.n	8001992 <LL_USART_Init+0x13a>
 8001972:	683b      	ldr	r3, [r7, #0]
 8001974:	695b      	ldr	r3, [r3, #20]
 8001976:	2b04      	cmp	r3, #4
 8001978:	d00b      	beq.n	8001992 <LL_USART_Init+0x13a>
 800197a:	683b      	ldr	r3, [r7, #0]
 800197c:	695b      	ldr	r3, [r3, #20]
 800197e:	2b08      	cmp	r3, #8
 8001980:	d007      	beq.n	8001992 <LL_USART_Init+0x13a>
 8001982:	683b      	ldr	r3, [r7, #0]
 8001984:	695b      	ldr	r3, [r3, #20]
 8001986:	2b0c      	cmp	r3, #12
 8001988:	d003      	beq.n	8001992 <LL_USART_Init+0x13a>
 800198a:	21bc      	movs	r1, #188	@ 0xbc
 800198c:	483e      	ldr	r0, [pc, #248]	@ (8001a88 <LL_USART_Init+0x230>)
 800198e:	f7fe ffa2 	bl	80008d6 <assert_failed>
  assert_param(IS_LL_USART_HWCONTROL(USART_InitStruct->HardwareFlowControl));
 8001992:	683b      	ldr	r3, [r7, #0]
 8001994:	699b      	ldr	r3, [r3, #24]
 8001996:	2b00      	cmp	r3, #0
 8001998:	d012      	beq.n	80019c0 <LL_USART_Init+0x168>
 800199a:	683b      	ldr	r3, [r7, #0]
 800199c:	699b      	ldr	r3, [r3, #24]
 800199e:	f5b3 7f80 	cmp.w	r3, #256	@ 0x100
 80019a2:	d00d      	beq.n	80019c0 <LL_USART_Init+0x168>
 80019a4:	683b      	ldr	r3, [r7, #0]
 80019a6:	699b      	ldr	r3, [r3, #24]
 80019a8:	f5b3 7f00 	cmp.w	r3, #512	@ 0x200
 80019ac:	d008      	beq.n	80019c0 <LL_USART_Init+0x168>
 80019ae:	683b      	ldr	r3, [r7, #0]
 80019b0:	699b      	ldr	r3, [r3, #24]
 80019b2:	f5b3 7f40 	cmp.w	r3, #768	@ 0x300
 80019b6:	d003      	beq.n	80019c0 <LL_USART_Init+0x168>
 80019b8:	21bd      	movs	r1, #189	@ 0xbd
 80019ba:	4833      	ldr	r0, [pc, #204]	@ (8001a88 <LL_USART_Init+0x230>)
 80019bc:	f7fe ff8b 	bl	80008d6 <assert_failed>
  assert_param(IS_LL_USART_OVERSAMPLING(USART_InitStruct->OverSampling));
 80019c0:	683b      	ldr	r3, [r7, #0]
 80019c2:	69db      	ldr	r3, [r3, #28]
 80019c4:	2b00      	cmp	r3, #0
 80019c6:	d008      	beq.n	80019da <LL_USART_Init+0x182>
 80019c8:	683b      	ldr	r3, [r7, #0]
 80019ca:	69db      	ldr	r3, [r3, #28]
 80019cc:	f5b3 4f00 	cmp.w	r3, #32768	@ 0x8000
 80019d0:	d003      	beq.n	80019da <LL_USART_Init+0x182>
 80019d2:	21be      	movs	r1, #190	@ 0xbe
 80019d4:	482c      	ldr	r0, [pc, #176]	@ (8001a88 <LL_USART_Init+0x230>)
 80019d6:	f7fe ff7e 	bl	80008d6 <assert_failed>

  /* USART needs to be in disabled state, in order to be able to configure some bits in
     CRx registers */
  if (LL_USART_IsEnabled(USARTx) == 0U)
 80019da:	6878      	ldr	r0, [r7, #4]
 80019dc:	f7ff fe9e 	bl	800171c <LL_USART_IsEnabled>
 80019e0:	4603      	mov	r3, r0
 80019e2:	2b00      	cmp	r3, #0
 80019e4:	d148      	bne.n	8001a78 <LL_USART_Init+0x220>
     * - DataWidth:          USART_CR1_M bits according to USART_InitStruct->DataWidth value
     * - Parity:             USART_CR1_PCE, USART_CR1_PS bits according to USART_InitStruct->Parity value
     * - TransferDirection:  USART_CR1_TE, USART_CR1_RE bits according to USART_InitStruct->TransferDirection value
     * - Oversampling:       USART_CR1_OVER8 bit according to USART_InitStruct->OverSampling value.
     */
    MODIFY_REG(USARTx->CR1,
 80019e6:	687b      	ldr	r3, [r7, #4]
 80019e8:	681a      	ldr	r2, [r3, #0]
 80019ea:	4b29      	ldr	r3, [pc, #164]	@ (8001a90 <LL_USART_Init+0x238>)
 80019ec:	4013      	ands	r3, r2
 80019ee:	683a      	ldr	r2, [r7, #0]
 80019f0:	6891      	ldr	r1, [r2, #8]
 80019f2:	683a      	ldr	r2, [r7, #0]
 80019f4:	6912      	ldr	r2, [r2, #16]
 80019f6:	4311      	orrs	r1, r2
 80019f8:	683a      	ldr	r2, [r7, #0]
 80019fa:	6952      	ldr	r2, [r2, #20]
 80019fc:	4311      	orrs	r1, r2
 80019fe:	683a      	ldr	r2, [r7, #0]
 8001a00:	69d2      	ldr	r2, [r2, #28]
 8001a02:	430a      	orrs	r2, r1
 8001a04:	431a      	orrs	r2, r3
 8001a06:	687b      	ldr	r3, [r7, #4]
 8001a08:	601a      	str	r2, [r3, #0]
    /*---------------------------- USART CR2 Configuration ---------------------
     * Configure USARTx CR2 (Stop bits) with parameters:
     * - Stop Bits:          USART_CR2_STOP bits according to USART_InitStruct->StopBits value.
     * - CLKEN, CPOL, CPHA and LBCL bits are to be configured using LL_USART_ClockInit().
     */
    LL_USART_SetStopBitsLength(USARTx, USART_InitStruct->StopBits);
 8001a0a:	683b      	ldr	r3, [r7, #0]
 8001a0c:	68db      	ldr	r3, [r3, #12]
 8001a0e:	4619      	mov	r1, r3
 8001a10:	6878      	ldr	r0, [r7, #4]
 8001a12:	f7ff feaa 	bl	800176a <LL_USART_SetStopBitsLength>
    /*---------------------------- USART CR3 Configuration ---------------------
     * Configure USARTx CR3 (Hardware Flow Control) with parameters:
     * - HardwareFlowControl: USART_CR3_RTSE, USART_CR3_CTSE bits according to
     *   USART_InitStruct->HardwareFlowControl value.
     */
    LL_USART_SetHWFlowCtrl(USARTx, USART_InitStruct->HardwareFlowControl);
 8001a16:	683b      	ldr	r3, [r7, #0]
 8001a18:	699b      	ldr	r3, [r3, #24]
 8001a1a:	4619      	mov	r1, r3
 8001a1c:	6878      	ldr	r0, [r7, #4]
 8001a1e:	f7ff feb7 	bl	8001790 <LL_USART_SetHWFlowCtrl>

    /*---------------------------- USART BRR Configuration ---------------------
     * Retrieve Clock frequency used for USART Peripheral
     */
    if (USARTx == USART1)
 8001a22:	687b      	ldr	r3, [r7, #4]
 8001a24:	4a17      	ldr	r2, [pc, #92]	@ (8001a84 <LL_USART_Init+0x22c>)
 8001a26:	4293      	cmp	r3, r2
 8001a28:	d103      	bne.n	8001a32 <LL_USART_Init+0x1da>
    {
      periphclk = LL_RCC_GetUSARTClockFreq(LL_RCC_USART1_CLKSOURCE);
 8001a2a:	2003      	movs	r0, #3
 8001a2c:	f7ff fd50 	bl	80014d0 <LL_RCC_GetUSARTClockFreq>
 8001a30:	60b8      	str	r0, [r7, #8]
    /* Configure the USART Baud Rate :
       - prescaler value is required
       - valid baud rate value (different from 0) is required
       - Peripheral clock as returned by RCC service, should be valid (different from 0).
    */
    if ((periphclk != LL_RCC_PERIPH_FREQUENCY_NO)
 8001a32:	68bb      	ldr	r3, [r7, #8]
 8001a34:	2b00      	cmp	r3, #0
 8001a36:	d019      	beq.n	8001a6c <LL_USART_Init+0x214>
        && (USART_InitStruct->BaudRate != 0U))
 8001a38:	683b      	ldr	r3, [r7, #0]
 8001a3a:	685b      	ldr	r3, [r3, #4]
 8001a3c:	2b00      	cmp	r3, #0
 8001a3e:	d015      	beq.n	8001a6c <LL_USART_Init+0x214>
    {
      status = SUCCESS;
 8001a40:	2300      	movs	r3, #0
 8001a42:	73fb      	strb	r3, [r7, #15]
      LL_USART_SetBaudRate(USARTx,
                           periphclk,
                           USART_InitStruct->PrescalerValue,
 8001a44:	683b      	ldr	r3, [r7, #0]
 8001a46:	681a      	ldr	r2, [r3, #0]
                           USART_InitStruct->OverSampling,
 8001a48:	683b      	ldr	r3, [r7, #0]
 8001a4a:	69d9      	ldr	r1, [r3, #28]
                           USART_InitStruct->BaudRate);
 8001a4c:	683b      	ldr	r3, [r7, #0]
 8001a4e:	685b      	ldr	r3, [r3, #4]
      LL_USART_SetBaudRate(USARTx,
 8001a50:	9300      	str	r3, [sp, #0]
 8001a52:	460b      	mov	r3, r1
 8001a54:	68b9      	ldr	r1, [r7, #8]
 8001a56:	6878      	ldr	r0, [r7, #4]
 8001a58:	f7ff feae 	bl	80017b8 <LL_USART_SetBaudRate>

      /* Check BRR is greater than or equal to 16d */
      assert_param(IS_LL_USART_BRR_MIN(USARTx->BRR));
 8001a5c:	687b      	ldr	r3, [r7, #4]
 8001a5e:	68db      	ldr	r3, [r3, #12]
 8001a60:	2b0f      	cmp	r3, #15
 8001a62:	d803      	bhi.n	8001a6c <LL_USART_Init+0x214>
 8001a64:	21fb      	movs	r1, #251	@ 0xfb
 8001a66:	4808      	ldr	r0, [pc, #32]	@ (8001a88 <LL_USART_Init+0x230>)
 8001a68:	f7fe ff35 	bl	80008d6 <assert_failed>

    /*---------------------------- USART PRESC Configuration -----------------------
     * Configure USARTx PRESC (Prescaler) with parameters:
     * - PrescalerValue: USART_PRESC_PRESCALER bits according to USART_InitStruct->PrescalerValue value.
     */
    LL_USART_SetPrescaler(USARTx, USART_InitStruct->PrescalerValue);
 8001a6c:	683b      	ldr	r3, [r7, #0]
 8001a6e:	681b      	ldr	r3, [r3, #0]
 8001a70:	4619      	mov	r1, r3
 8001a72:	6878      	ldr	r0, [r7, #4]
 8001a74:	f7ff fe65 	bl	8001742 <LL_USART_SetPrescaler>
  }
  /* Endif (=> USART not in Disabled state => return ERROR) */

  return (status);
 8001a78:	7bfb      	ldrb	r3, [r7, #15]
}
 8001a7a:	4618      	mov	r0, r3
 8001a7c:	3710      	adds	r7, #16
 8001a7e:	46bd      	mov	sp, r7
 8001a80:	bd80      	pop	{r7, pc}
 8001a82:	bf00      	nop
 8001a84:	40013800 	.word	0x40013800
 8001a88:	08001be4 	.word	0x08001be4
 8001a8c:	007a1200 	.word	0x007a1200
 8001a90:	efff69f3 	.word	0xefff69f3

08001a94 <LL_InitTick>:
  *         configuration by calling this function, for a delay use rather osDelay RTOS service.
  * @param  Ticks Frequency of Ticks (Hz)
  * @retval None
  */
__STATIC_INLINE void LL_InitTick(uint32_t HCLKFrequency, uint32_t Ticks)
{
 8001a94:	b480      	push	{r7}
 8001a96:	b083      	sub	sp, #12
 8001a98:	af00      	add	r7, sp, #0
 8001a9a:	6078      	str	r0, [r7, #4]
 8001a9c:	6039      	str	r1, [r7, #0]
  /* Configure the SysTick to have interrupt in 1ms time base */
  SysTick->LOAD  = (uint32_t)((HCLKFrequency / Ticks) - 1UL);  /* set reload register */
 8001a9e:	687a      	ldr	r2, [r7, #4]
 8001aa0:	683b      	ldr	r3, [r7, #0]
 8001aa2:	fbb2 f3f3 	udiv	r3, r2, r3
 8001aa6:	4a07      	ldr	r2, [pc, #28]	@ (8001ac4 <LL_InitTick+0x30>)
 8001aa8:	3b01      	subs	r3, #1
 8001aaa:	6053      	str	r3, [r2, #4]
  SysTick->VAL   = 0UL;                                       /* Load the SysTick Counter Value */
 8001aac:	4b05      	ldr	r3, [pc, #20]	@ (8001ac4 <LL_InitTick+0x30>)
 8001aae:	2200      	movs	r2, #0
 8001ab0:	609a      	str	r2, [r3, #8]
  SysTick->CTRL  = SysTick_CTRL_CLKSOURCE_Msk |
 8001ab2:	4b04      	ldr	r3, [pc, #16]	@ (8001ac4 <LL_InitTick+0x30>)
 8001ab4:	2205      	movs	r2, #5
 8001ab6:	601a      	str	r2, [r3, #0]
                   SysTick_CTRL_ENABLE_Msk;                   /* Enable the Systick Timer */
}
 8001ab8:	bf00      	nop
 8001aba:	370c      	adds	r7, #12
 8001abc:	46bd      	mov	sp, r7
 8001abe:	f85d 7b04 	ldr.w	r7, [sp], #4
 8001ac2:	4770      	bx	lr
 8001ac4:	e000e010 	.word	0xe000e010

08001ac8 <LL_Init1msTick>:
  * @param  HCLKFrequency HCLK frequency in Hz
  * @note   HCLK frequency can be calculated thanks to RCC helper macro or function @ref LL_RCC_GetSystemClocksFreq (HCLK1_Frequency field)
  * @retval None
  */
void LL_Init1msTick(uint32_t HCLKFrequency)
{
 8001ac8:	b580      	push	{r7, lr}
 8001aca:	b082      	sub	sp, #8
 8001acc:	af00      	add	r7, sp, #0
 8001ace:	6078      	str	r0, [r7, #4]
  /* Use frequency provided in argument */
  LL_InitTick(HCLKFrequency, 1000);
 8001ad0:	f44f 717a 	mov.w	r1, #1000	@ 0x3e8
 8001ad4:	6878      	ldr	r0, [r7, #4]
 8001ad6:	f7ff ffdd 	bl	8001a94 <LL_InitTick>
}
 8001ada:	bf00      	nop
 8001adc:	3708      	adds	r7, #8
 8001ade:	46bd      	mov	sp, r7
 8001ae0:	bd80      	pop	{r7, pc}
	...

08001ae4 <LL_SetSystemCoreClock>:
  * @note   Variable can be calculated also through SystemCoreClockUpdate function.
  * @param  HCLKFrequency HCLK frequency in Hz (can be calculated thanks to RCC helper macro or function @ref LL_RCC_GetSystemClocksFreq (HCLK1_Frequency field))
  * @retval None
  */
void LL_SetSystemCoreClock(uint32_t HCLKFrequency)
{
 8001ae4:	b480      	push	{r7}
 8001ae6:	b083      	sub	sp, #12
 8001ae8:	af00      	add	r7, sp, #0
 8001aea:	6078      	str	r0, [r7, #4]
  /* HCLK clock frequency */
  SystemCoreClock = HCLKFrequency;
 8001aec:	4a04      	ldr	r2, [pc, #16]	@ (8001b00 <LL_SetSystemCoreClock+0x1c>)
 8001aee:	687b      	ldr	r3, [r7, #4]
 8001af0:	6013      	str	r3, [r2, #0]
}
 8001af2:	bf00      	nop
 8001af4:	370c      	adds	r7, #12
 8001af6:	46bd      	mov	sp, r7
 8001af8:	f85d 7b04 	ldr.w	r7, [sp], #4
 8001afc:	4770      	bx	lr
 8001afe:	bf00      	nop
 8001b00:	20000008 	.word	0x20000008

08001b04 <memset>:
 8001b04:	4402      	add	r2, r0
 8001b06:	4603      	mov	r3, r0
 8001b08:	4293      	cmp	r3, r2
 8001b0a:	d100      	bne.n	8001b0e <memset+0xa>
 8001b0c:	4770      	bx	lr
 8001b0e:	f803 1b01 	strb.w	r1, [r3], #1
 8001b12:	e7f9      	b.n	8001b08 <memset+0x4>

08001b14 <__libc_init_array>:
 8001b14:	b570      	push	{r4, r5, r6, lr}
 8001b16:	4d0d      	ldr	r5, [pc, #52]	@ (8001b4c <__libc_init_array+0x38>)
 8001b18:	4c0d      	ldr	r4, [pc, #52]	@ (8001b50 <__libc_init_array+0x3c>)
 8001b1a:	1b64      	subs	r4, r4, r5
 8001b1c:	10a4      	asrs	r4, r4, #2
 8001b1e:	2600      	movs	r6, #0
 8001b20:	42a6      	cmp	r6, r4
 8001b22:	d109      	bne.n	8001b38 <__libc_init_array+0x24>
 8001b24:	4d0b      	ldr	r5, [pc, #44]	@ (8001b54 <__libc_init_array+0x40>)
 8001b26:	4c0c      	ldr	r4, [pc, #48]	@ (8001b58 <__libc_init_array+0x44>)
 8001b28:	f000 f818 	bl	8001b5c <_init>
 8001b2c:	1b64      	subs	r4, r4, r5
 8001b2e:	10a4      	asrs	r4, r4, #2
 8001b30:	2600      	movs	r6, #0
 8001b32:	42a6      	cmp	r6, r4
 8001b34:	d105      	bne.n	8001b42 <__libc_init_array+0x2e>
 8001b36:	bd70      	pop	{r4, r5, r6, pc}
 8001b38:	f855 3b04 	ldr.w	r3, [r5], #4
 8001b3c:	4798      	blx	r3
 8001b3e:	3601      	adds	r6, #1
 8001b40:	e7ee      	b.n	8001b20 <__libc_init_array+0xc>
 8001b42:	f855 3b04 	ldr.w	r3, [r5], #4
 8001b46:	4798      	blx	r3
 8001b48:	3601      	adds	r6, #1
 8001b4a:	e7f2      	b.n	8001b32 <__libc_init_array+0x1e>
 8001b4c:	08001cf0 	.word	0x08001cf0
 8001b50:	08001cf0 	.word	0x08001cf0
 8001b54:	08001cf0 	.word	0x08001cf0
 8001b58:	08001cf4 	.word	0x08001cf4

08001b5c <_init>:
 8001b5c:	b5f8      	push	{r3, r4, r5, r6, r7, lr}
 8001b5e:	bf00      	nop
 8001b60:	bcf8      	pop	{r3, r4, r5, r6, r7}
 8001b62:	bc08      	pop	{r3}
 8001b64:	469e      	mov	lr, r3
 8001b66:	4770      	bx	lr

08001b68 <_fini>:
 8001b68:	b5f8      	push	{r3, r4, r5, r6, r7, lr}
 8001b6a:	bf00      	nop
 8001b6c:	bcf8      	pop	{r3, r4, r5, r6, r7}
 8001b6e:	bc08      	pop	{r3}
 8001b70:	469e      	mov	lr, r3
 8001b72:	4770      	bx	lr
